
Ford_360_Lighting_Project.elf:     file format elf32-avr

Sections:
Idx Name          Size      VMA       LMA       File off  Algn
  0 .data         0000000c  00800100  00001370  00001404  2**0
                  CONTENTS, ALLOC, LOAD, DATA
  1 .text         00001370  00000000  00000000  00000094  2**1
                  CONTENTS, ALLOC, LOAD, READONLY, CODE
  2 .bss          00000146  0080010c  0080010c  00001410  2**0
                  ALLOC
  3 .comment      00000030  00000000  00000000  00001410  2**0
                  CONTENTS, READONLY
  4 .note.gnu.avr.deviceinfo 0000003c  00000000  00000000  00001440  2**2
                  CONTENTS, READONLY
  5 .debug_aranges 000003c0  00000000  00000000  0000147c  2**0
                  CONTENTS, READONLY, DEBUGGING
  6 .debug_info   00003676  00000000  00000000  0000183c  2**0
                  CONTENTS, READONLY, DEBUGGING
  7 .debug_abbrev 00001900  00000000  00000000  00004eb2  2**0
                  CONTENTS, READONLY, DEBUGGING
  8 .debug_line   00001df6  00000000  00000000  000067b2  2**0
                  CONTENTS, READONLY, DEBUGGING
  9 .debug_frame  00000934  00000000  00000000  000085a8  2**2
                  CONTENTS, READONLY, DEBUGGING
 10 .debug_str    00000f46  00000000  00000000  00008edc  2**0
                  CONTENTS, READONLY, DEBUGGING
 11 .debug_loc    00001f2c  00000000  00000000  00009e22  2**0
                  CONTENTS, READONLY, DEBUGGING
 12 .debug_ranges 000002c0  00000000  00000000  0000bd4e  2**0
                  CONTENTS, READONLY, DEBUGGING

Disassembly of section .text:

00000000 <__vectors>:
       0:	0c 94 28 00 	jmp	0x50	; 0x50 <__ctors_end>
       4:	0c 94 01 03 	jmp	0x602	; 0x602 <__vector_1>
       8:	0c 94 45 00 	jmp	0x8a	; 0x8a <__bad_interrupt>
       c:	0c 94 45 00 	jmp	0x8a	; 0x8a <__bad_interrupt>
      10:	0c 94 45 00 	jmp	0x8a	; 0x8a <__bad_interrupt>
      14:	0c 94 45 00 	jmp	0x8a	; 0x8a <__bad_interrupt>
      18:	0c 94 45 00 	jmp	0x8a	; 0x8a <__bad_interrupt>
      1c:	0c 94 45 00 	jmp	0x8a	; 0x8a <__bad_interrupt>
      20:	0c 94 45 00 	jmp	0x8a	; 0x8a <__bad_interrupt>
      24:	0c 94 9d 00 	jmp	0x13a	; 0x13a <__vector_9>
      28:	0c 94 41 09 	jmp	0x1282	; 0x1282 <__vector_10>
      2c:	0c 94 45 00 	jmp	0x8a	; 0x8a <__bad_interrupt>
      30:	0c 94 37 05 	jmp	0xa6e	; 0xa6e <__vector_12>
      34:	0c 94 ca 05 	jmp	0xb94	; 0xb94 <__vector_13>
      38:	0c 94 79 07 	jmp	0xef2	; 0xef2 <__vector_14>
      3c:	0c 94 60 00 	jmp	0xc0	; 0xc0 <__vector_15>
      40:	0c 94 45 00 	jmp	0x8a	; 0x8a <__bad_interrupt>
      44:	0c 94 45 00 	jmp	0x8a	; 0x8a <__bad_interrupt>
      48:	0c 94 45 00 	jmp	0x8a	; 0x8a <__bad_interrupt>
      4c:	0c 94 45 00 	jmp	0x8a	; 0x8a <__bad_interrupt>

00000050 <__ctors_end>:
      50:	11 24       	eor	r1, r1
      52:	1f be       	out	0x3f, r1	; 63
      54:	cf ef       	ldi	r28, 0xFF	; 255
      56:	d2 e0       	ldi	r29, 0x02	; 2
      58:	de bf       	out	0x3e, r29	; 62
      5a:	cd bf       	out	0x3d, r28	; 61

0000005c <__do_copy_data>:
      5c:	11 e0       	ldi	r17, 0x01	; 1
      5e:	a0 e0       	ldi	r26, 0x00	; 0
      60:	b1 e0       	ldi	r27, 0x01	; 1
      62:	e0 e7       	ldi	r30, 0x70	; 112
      64:	f3 e1       	ldi	r31, 0x13	; 19
      66:	02 c0       	rjmp	.+4      	; 0x6c <__do_copy_data+0x10>
      68:	05 90       	lpm	r0, Z+
      6a:	0d 92       	st	X+, r0
      6c:	ac 30       	cpi	r26, 0x0C	; 12
      6e:	b1 07       	cpc	r27, r17
      70:	d9 f7       	brne	.-10     	; 0x68 <__do_copy_data+0xc>

00000072 <__do_clear_bss>:
      72:	22 e0       	ldi	r18, 0x02	; 2
      74:	ac e0       	ldi	r26, 0x0C	; 12
      76:	b1 e0       	ldi	r27, 0x01	; 1
      78:	01 c0       	rjmp	.+2      	; 0x7c <.do_clear_bss_start>

0000007a <.do_clear_bss_loop>:
      7a:	1d 92       	st	X+, r1

0000007c <.do_clear_bss_start>:
      7c:	a2 35       	cpi	r26, 0x52	; 82
      7e:	b2 07       	cpc	r27, r18
      80:	e1 f7       	brne	.-8      	; 0x7a <.do_clear_bss_loop>
      82:	0e 94 50 04 	call	0x8a0	; 0x8a0 <main>
      86:	0c 94 b6 09 	jmp	0x136c	; 0x136c <_exit>

0000008a <__bad_interrupt>:
      8a:	0c 94 00 00 	jmp	0	; 0x0 <__vectors>

0000008e <Init_ADC_Module>:

****************************************************************************/
void Start_ADC_Measurement(void)
{
    // Writing this bit kicks off the ADC measurement
    ADCSRA |= (1<<ADSC);
      8e:	ec e7       	ldi	r30, 0x7C	; 124
      90:	f0 e0       	ldi	r31, 0x00	; 0
      92:	80 81       	ld	r24, Z
      94:	8f 7b       	andi	r24, 0xBF	; 191
      96:	80 83       	st	Z, r24
      98:	a7 e7       	ldi	r26, 0x77	; 119
      9a:	b0 e0       	ldi	r27, 0x00	; 0
      9c:	8c 91       	ld	r24, X
      9e:	8b 7f       	andi	r24, 0xFB	; 251
      a0:	8c 93       	st	X, r24
      a2:	80 81       	ld	r24, Z
      a4:	88 60       	ori	r24, 0x08	; 8
      a6:	80 83       	st	Z, r24
      a8:	80 81       	ld	r24, Z
      aa:	88 7f       	andi	r24, 0xF8	; 248
      ac:	80 83       	st	Z, r24
      ae:	ea e7       	ldi	r30, 0x7A	; 122
      b0:	f0 e0       	ldi	r31, 0x00	; 0
      b2:	80 81       	ld	r24, Z
      b4:	88 68       	ori	r24, 0x88	; 136
      b6:	80 83       	st	Z, r24
      b8:	80 81       	ld	r24, Z
      ba:	88 7f       	andi	r24, 0xF8	; 248
      bc:	80 83       	st	Z, r24
      be:	08 95       	ret

000000c0 <__vector_15>:
    Description
        Handles ADC specific interrupts

****************************************************************************/
ISR(ADC_vect)
{
      c0:	1f 92       	push	r1
      c2:	0f 92       	push	r0
      c4:	0f b6       	in	r0, 0x3f	; 63
      c6:	0f 92       	push	r0
      c8:	11 24       	eor	r1, r1
      ca:	8f 93       	push	r24
      cc:	9f 93       	push	r25
      ce:	ef 93       	push	r30
      d0:	ff 93       	push	r31
    // Clear ADC Interrupt Flag
    ADCSRA |= (1<<ADIF);
      d2:	ea e7       	ldi	r30, 0x7A	; 122
      d4:	f0 e0       	ldi	r31, 0x00	; 0
      d6:	80 81       	ld	r24, Z
      d8:	80 61       	ori	r24, 0x10	; 16
      da:	80 83       	st	Z, r24
    // Get ADC from 2, 8-bit regs,
    //      no need for atomic because we are
    //      in an ISR which is technically an
    //      atomic section
    Last_ADC_Value = ADC;
      dc:	80 91 78 00 	lds	r24, 0x0078	; 0x800078 <__EEPROM_REGION_LENGTH__+0x7f0078>
      e0:	90 91 79 00 	lds	r25, 0x0079	; 0x800079 <__EEPROM_REGION_LENGTH__+0x7f0079>
      e4:	90 93 01 01 	sts	0x0101, r25	; 0x800101 <__data_start+0x1>
      e8:	80 93 00 01 	sts	0x0100, r24	; 0x800100 <__data_start>
}
      ec:	ff 91       	pop	r31
      ee:	ef 91       	pop	r30
      f0:	9f 91       	pop	r25
      f2:	8f 91       	pop	r24
      f4:	0f 90       	pop	r0
      f6:	0f be       	out	0x3f, r0	; 63
      f8:	0f 90       	pop	r0
      fa:	1f 90       	pop	r1
      fc:	18 95       	reti

000000fe <stop_signal>:
    }
    else
    {
        return true;
    }
}
      fe:	60 e0       	ldi	r22, 0x00	; 0
     100:	81 e0       	ldi	r24, 0x01	; 1
     102:	0e 94 08 06 	call	0xc10	; 0xc10 <Set_PWM_Duty_Cycle>
     106:	08 95       	ret

00000108 <Init_Analog_Servo_Driver>:
     108:	60 e0       	ldi	r22, 0x00	; 0
     10a:	70 e0       	ldi	r23, 0x00	; 0
     10c:	cb 01       	movw	r24, r22
     10e:	0e 94 7f 00 	call	0xfe	; 0xfe <stop_signal>
     112:	e3 e8       	ldi	r30, 0x83	; 131
     114:	f0 e0       	ldi	r31, 0x00	; 0
     116:	80 81       	ld	r24, Z
     118:	8f 7d       	andi	r24, 0xDF	; 223
     11a:	80 83       	st	Z, r24
     11c:	2b 98       	cbi	0x05, 3	; 5
     11e:	10 92 0c 01 	sts	0x010C, r1	; 0x80010c <__data_end>
     122:	ef e6       	ldi	r30, 0x6F	; 111
     124:	f0 e0       	ldi	r31, 0x00	; 0
     126:	80 81       	ld	r24, Z
     128:	81 60       	ori	r24, 0x01	; 1
     12a:	80 83       	st	Z, r24
     12c:	6f e7       	ldi	r22, 0x7F	; 127
     12e:	70 e0       	ldi	r23, 0x00	; 0
     130:	8d e0       	ldi	r24, 0x0D	; 13
     132:	91 e0       	ldi	r25, 0x01	; 1
     134:	0e 94 b3 08 	call	0x1166	; 0x1166 <Register_Timer>
     138:	08 95       	ret

0000013a <__vector_9>:
        -       TOP Interrupt
        3       Do nothing

****************************************************************************/
ISR(TIMER1_OVF_vect)
{
     13a:	1f 92       	push	r1
     13c:	0f 92       	push	r0
     13e:	0f b6       	in	r0, 0x3f	; 63
     140:	0f 92       	push	r0
     142:	11 24       	eor	r1, r1
     144:	8f 93       	push	r24
     146:	ef 93       	push	r30
     148:	ff 93       	push	r31
    // Switch for fastest execution time
    switch (Step)
     14a:	80 91 0c 01 	lds	r24, 0x010C	; 0x80010c <__data_end>
     14e:	88 23       	and	r24, r24
     150:	19 f0       	breq	.+6      	; 0x158 <__vector_9+0x1e>
     152:	81 30       	cpi	r24, 0x01	; 1
     154:	39 f0       	breq	.+14     	; 0x164 <__vector_9+0x2a>
     156:	0c c0       	rjmp	.+24     	; 0x170 <__vector_9+0x36>
    {
        case STEP0:
            // Enable PWM out on the analog servo drive pin
            TCCR1D |= (1<<ANALOG_SERVO_PWM_EN);
     158:	e3 e8       	ldi	r30, 0x83	; 131
     15a:	f0 e0       	ldi	r31, 0x00	; 0
     15c:	80 81       	ld	r24, Z
     15e:	80 62       	ori	r24, 0x20	; 32
     160:	80 83       	st	Z, r24
            break;
     162:	06 c0       	rjmp	.+12     	; 0x170 <__vector_9+0x36>

        case STEP1:
            // Disable PWM out on the analog servo drive pin
            TCCR1D &= ~(1<<ANALOG_SERVO_PWM_EN);
     164:	e3 e8       	ldi	r30, 0x83	; 131
     166:	f0 e0       	ldi	r31, 0x00	; 0
     168:	80 81       	ld	r24, Z
     16a:	8f 7d       	andi	r24, 0xDF	; 223
     16c:	80 83       	st	Z, r24
            // Drive line low (This order is okay because at TOP
            //  the line should be low, this also seems to have
            //  less jitter based on o'scope-ing)
            ANALOG_SERVO_DRV_PORT &= ~(1<<ANALOG_SERVO_DRV_PIN);
     16e:	2b 98       	cbi	0x05, 3	; 5
        default:
            break;
    }

    // Increment step number for next TOP interrupt
    Step++;
     170:	80 91 0c 01 	lds	r24, 0x010C	; 0x80010c <__data_end>
     174:	8f 5f       	subi	r24, 0xFF	; 255
    Step &= STEP_BITS_XOR_MASK;
     176:	83 70       	andi	r24, 0x03	; 3
     178:	80 93 0c 01 	sts	0x010C, r24	; 0x80010c <__data_end>
}
     17c:	ff 91       	pop	r31
     17e:	ef 91       	pop	r30
     180:	8f 91       	pop	r24
     182:	0f 90       	pop	r0
     184:	0f be       	out	0x3f, r0	; 63
     186:	0f 90       	pop	r0
     188:	1f 90       	pop	r1
     18a:	18 95       	reti

0000018c <CAN_Reset>:
	// Value to Set
	uint8_t Data_2_Write[RX_STATUS_TX_LENGTH] = {MCP_RX_STATUS};
	
	// Call SPI command
	Write_SPI(RX_STATUS_TX_LENGTH, RX_STATUS_RX_LENGTH, Data_2_Write, Variable_2_Set);	
}
     18c:	cf 93       	push	r28
     18e:	df 93       	push	r29
     190:	1f 92       	push	r1
     192:	cd b7       	in	r28, 0x3d	; 61
     194:	de b7       	in	r29, 0x3e	; 62
     196:	80 ec       	ldi	r24, 0xC0	; 192
     198:	89 83       	std	Y+1, r24	; 0x01
     19a:	20 e0       	ldi	r18, 0x00	; 0
     19c:	30 e0       	ldi	r19, 0x00	; 0
     19e:	ae 01       	movw	r20, r28
     1a0:	4f 5f       	subi	r20, 0xFF	; 255
     1a2:	5f 4f       	sbci	r21, 0xFF	; 255
     1a4:	60 e0       	ldi	r22, 0x00	; 0
     1a6:	81 e0       	ldi	r24, 0x01	; 1
     1a8:	0e 94 ec 06 	call	0xdd8	; 0xdd8 <Write_SPI>
     1ac:	0f 90       	pop	r0
     1ae:	df 91       	pop	r29
     1b0:	cf 91       	pop	r28
     1b2:	08 95       	ret

000001b4 <CAN_Read>:
     1b4:	cf 93       	push	r28
     1b6:	df 93       	push	r29
     1b8:	00 d0       	rcall	.+0      	; 0x1ba <CAN_Read+0x6>
     1ba:	cd b7       	in	r28, 0x3d	; 61
     1bc:	de b7       	in	r29, 0x3e	; 62
     1be:	9b 01       	movw	r18, r22
     1c0:	93 e0       	ldi	r25, 0x03	; 3
     1c2:	99 83       	std	Y+1, r25	; 0x01
     1c4:	8a 83       	std	Y+2, r24	; 0x02
     1c6:	ae 01       	movw	r20, r28
     1c8:	4f 5f       	subi	r20, 0xFF	; 255
     1ca:	5f 4f       	sbci	r21, 0xFF	; 255
     1cc:	61 e0       	ldi	r22, 0x01	; 1
     1ce:	82 e0       	ldi	r24, 0x02	; 2
     1d0:	0e 94 ec 06 	call	0xdd8	; 0xdd8 <Write_SPI>
     1d4:	0f 90       	pop	r0
     1d6:	0f 90       	pop	r0
     1d8:	df 91       	pop	r29
     1da:	cf 91       	pop	r28
     1dc:	08 95       	ret

000001de <CAN_Write>:
     1de:	cf 93       	push	r28
     1e0:	df 93       	push	r29
     1e2:	00 d0       	rcall	.+0      	; 0x1e4 <CAN_Write+0x6>
     1e4:	1f 92       	push	r1
     1e6:	cd b7       	in	r28, 0x3d	; 61
     1e8:	de b7       	in	r29, 0x3e	; 62
     1ea:	92 e0       	ldi	r25, 0x02	; 2
     1ec:	99 83       	std	Y+1, r25	; 0x01
     1ee:	8a 83       	std	Y+2, r24	; 0x02
     1f0:	fb 01       	movw	r30, r22
     1f2:	80 81       	ld	r24, Z
     1f4:	8b 83       	std	Y+3, r24	; 0x03
     1f6:	20 e0       	ldi	r18, 0x00	; 0
     1f8:	30 e0       	ldi	r19, 0x00	; 0
     1fa:	ae 01       	movw	r20, r28
     1fc:	4f 5f       	subi	r20, 0xFF	; 255
     1fe:	5f 4f       	sbci	r21, 0xFF	; 255
     200:	60 e0       	ldi	r22, 0x00	; 0
     202:	83 e0       	ldi	r24, 0x03	; 3
     204:	0e 94 ec 06 	call	0xdd8	; 0xdd8 <Write_SPI>
     208:	0f 90       	pop	r0
     20a:	0f 90       	pop	r0
     20c:	0f 90       	pop	r0
     20e:	df 91       	pop	r29
     210:	cf 91       	pop	r28
     212:	08 95       	ret

00000214 <CAN_Bit_Modify>:
        Performs bit modify operation on CAN module

****************************************************************************/

void CAN_Bit_Modify(uint8_t Register_2_Set, uint8_t Bits_2_Change, uint8_t* Value_2_Set)
{
     214:	cf 93       	push	r28
     216:	df 93       	push	r29
     218:	00 d0       	rcall	.+0      	; 0x21a <CAN_Bit_Modify+0x6>
     21a:	00 d0       	rcall	.+0      	; 0x21c <CAN_Bit_Modify+0x8>
     21c:	cd b7       	in	r28, 0x3d	; 61
     21e:	de b7       	in	r29, 0x3e	; 62
    // Define constants
    #define BM_TX_LENGTH 4
    #define BM_RX_LENGTH 0
	
    // Value to Set
    uint8_t Data_2_Write[BM_TX_LENGTH] = {MCP_BITMOD, Register_2_Set, Bits_2_Change, Value_2_Set[0]};
     220:	95 e0       	ldi	r25, 0x05	; 5
     222:	99 83       	std	Y+1, r25	; 0x01
     224:	8a 83       	std	Y+2, r24	; 0x02
     226:	6b 83       	std	Y+3, r22	; 0x03
     228:	fa 01       	movw	r30, r20
     22a:	80 81       	ld	r24, Z
     22c:	8c 83       	std	Y+4, r24	; 0x04
    
    // Call SPI command
    Write_SPI(BM_TX_LENGTH, BM_RX_LENGTH, Data_2_Write, NULL);
     22e:	20 e0       	ldi	r18, 0x00	; 0
     230:	30 e0       	ldi	r19, 0x00	; 0
     232:	ae 01       	movw	r20, r28
     234:	4f 5f       	subi	r20, 0xFF	; 255
     236:	5f 4f       	sbci	r21, 0xFF	; 255
     238:	60 e0       	ldi	r22, 0x00	; 0
     23a:	84 e0       	ldi	r24, 0x04	; 4
     23c:	0e 94 ec 06 	call	0xdd8	; 0xdd8 <Write_SPI>
}
     240:	0f 90       	pop	r0
     242:	0f 90       	pop	r0
     244:	0f 90       	pop	r0
     246:	0f 90       	pop	r0
     248:	df 91       	pop	r29
     24a:	cf 91       	pop	r28
     24c:	08 95       	ret

0000024e <MS_CAN_Initialize_1>:
    Description
        Initializes the CAN module MCP25625

****************************************************************************/
void MS_CAN_Initialize_1(void)
{
     24e:	cf 93       	push	r28
     250:	df 93       	push	r29
    // Reset the CAN Module and enter in configuration mode
    CAN_Reset();
     252:	0e 94 c6 00 	call	0x18c	; 0x18c <CAN_Reset>
    
    // Enter configuration mode, abort all pending transmissions and disable one shot mode
    TX_Data[0] = (MODE_CONFIG|ABORT_TX);
     256:	80 e9       	ldi	r24, 0x90	; 144
     258:	80 93 14 01 	sts	0x0114, r24	; 0x800114 <TX_Data>
    CAN_Write(MCP_CANCTRL, TX_Data);
     25c:	64 e1       	ldi	r22, 0x14	; 20
     25e:	71 e0       	ldi	r23, 0x01	; 1
     260:	8f e0       	ldi	r24, 0x0F	; 15
     262:	0e 94 ef 00 	call	0x1de	; 0x1de <CAN_Write>
	
    // Disable CLKOUT
    TX_Data[0] = CLKOUT_DISABLE;
     266:	10 92 14 01 	sts	0x0114, r1	; 0x800114 <TX_Data>
    CAN_Bit_Modify(MCP_CANCTRL, (1 << 2), TX_Data);
     26a:	44 e1       	ldi	r20, 0x14	; 20
     26c:	51 e0       	ldi	r21, 0x01	; 1
     26e:	64 e0       	ldi	r22, 0x04	; 4
     270:	8f e0       	ldi	r24, 0x0F	; 15
     272:	0e 94 0a 01 	call	0x214	; 0x214 <CAN_Bit_Modify>
	
    // Set CNF Bit Time registers for Baud Rate = 312500 b/s
	TX_Data[0] = 0x41;
     276:	d1 e4       	ldi	r29, 0x41	; 65
     278:	d0 93 14 01 	sts	0x0114, r29	; 0x800114 <TX_Data>
	CAN_Bit_Modify(MCP_CNF1, (1 << 0), TX_Data);
     27c:	44 e1       	ldi	r20, 0x14	; 20
     27e:	51 e0       	ldi	r21, 0x01	; 1
     280:	61 e0       	ldi	r22, 0x01	; 1
     282:	8a e2       	ldi	r24, 0x2A	; 42
     284:	0e 94 0a 01 	call	0x214	; 0x214 <CAN_Bit_Modify>
	TX_Data[0] = 0xF1;
     288:	c1 ef       	ldi	r28, 0xF1	; 241
     28a:	c0 93 14 01 	sts	0x0114, r28	; 0x800114 <TX_Data>
	CAN_Bit_Modify(MCP_CNF2, ((1 << 0)|(1 << 1)|(1 << 2)), TX_Data);
     28e:	44 e1       	ldi	r20, 0x14	; 20
     290:	51 e0       	ldi	r21, 0x01	; 1
     292:	67 e0       	ldi	r22, 0x07	; 7
     294:	89 e2       	ldi	r24, 0x29	; 41
     296:	0e 94 0a 01 	call	0x214	; 0x214 <CAN_Bit_Modify>
	TX_Data[0] = 0xF1;
     29a:	c0 93 14 01 	sts	0x0114, r28	; 0x800114 <TX_Data>
	CAN_Bit_Modify(MCP_CNF2, ((1 << 3)|(1 << 4)|(1 << 5)), TX_Data);
     29e:	44 e1       	ldi	r20, 0x14	; 20
     2a0:	51 e0       	ldi	r21, 0x01	; 1
     2a2:	68 e3       	ldi	r22, 0x38	; 56
     2a4:	89 e2       	ldi	r24, 0x29	; 41
     2a6:	0e 94 0a 01 	call	0x214	; 0x214 <CAN_Bit_Modify>
	TX_Data[0] = 0xF1;
     2aa:	c0 93 14 01 	sts	0x0114, r28	; 0x800114 <TX_Data>
	CAN_Bit_Modify(MCP_CNF2, ((1 << 7)|(1 << 6)), TX_Data);
     2ae:	44 e1       	ldi	r20, 0x14	; 20
     2b0:	51 e0       	ldi	r21, 0x01	; 1
     2b2:	60 ec       	ldi	r22, 0xC0	; 192
     2b4:	89 e2       	ldi	r24, 0x29	; 41
     2b6:	0e 94 0a 01 	call	0x214	; 0x214 <CAN_Bit_Modify>
	TX_Data[0] = 0x85;
     2ba:	85 e8       	ldi	r24, 0x85	; 133
     2bc:	80 93 14 01 	sts	0x0114, r24	; 0x800114 <TX_Data>
    CAN_Write(MCP_CNF3, TX_Data);
     2c0:	64 e1       	ldi	r22, 0x14	; 20
     2c2:	71 e0       	ldi	r23, 0x01	; 1
     2c4:	88 e2       	ldi	r24, 0x28	; 40
     2c6:	0e 94 ef 00 	call	0x1de	; 0x1de <CAN_Write>
	TX_Data[0] = 0x41;
     2ca:	d0 93 14 01 	sts	0x0114, r29	; 0x800114 <TX_Data>
	CAN_Bit_Modify(MCP_CNF1, ((1 << 7)|(1 << 6)), TX_Data);
     2ce:	44 e1       	ldi	r20, 0x14	; 20
     2d0:	51 e0       	ldi	r21, 0x01	; 1
     2d2:	60 ec       	ldi	r22, 0xC0	; 192
     2d4:	8a e2       	ldi	r24, 0x2A	; 42
     2d6:	0e 94 0a 01 	call	0x214	; 0x214 <CAN_Bit_Modify>
}
     2da:	df 91       	pop	r29
     2dc:	cf 91       	pop	r28
     2de:	08 95       	ret

000002e0 <MS_CAN_Initialize_2>:
void MS_CAN_Initialize_2(void)
{
    // Set interrupt registers
    
    // Enable all interrupts
    TX_Data[0] = 0xFF;
     2e0:	8f ef       	ldi	r24, 0xFF	; 255
     2e2:	80 93 14 01 	sts	0x0114, r24	; 0x800114 <TX_Data>
    CAN_Write(MCP_CANINTE, TX_Data);
     2e6:	64 e1       	ldi	r22, 0x14	; 20
     2e8:	71 e0       	ldi	r23, 0x01	; 1
     2ea:	8b e2       	ldi	r24, 0x2B	; 43
     2ec:	0e 94 ef 00 	call	0x1de	; 0x1de <CAN_Write>

    // Set up TX Buffer 0
    TX_Data[0] = MCP_TXB_TXP10_M; // Highest message priority
     2f0:	83 e0       	ldi	r24, 0x03	; 3
     2f2:	80 93 14 01 	sts	0x0114, r24	; 0x800114 <TX_Data>
    CAN_Write(MCP_TXB0CTRL, TX_Data);
     2f6:	64 e1       	ldi	r22, 0x14	; 20
     2f8:	71 e0       	ldi	r23, 0x01	; 1
     2fa:	80 e3       	ldi	r24, 0x30	; 48
     2fc:	0e 94 ef 00 	call	0x1de	; 0x1de <CAN_Write>
    
    // Set RTS pins as digital inputs
    TX_Data[0] = 0;
     300:	10 92 14 01 	sts	0x0114, r1	; 0x800114 <TX_Data>
    CAN_Write(MCP_RTSCTRL, TX_Data);
     304:	64 e1       	ldi	r22, 0x14	; 20
     306:	71 e0       	ldi	r23, 0x01	; 1
     308:	8d e0       	ldi	r24, 0x0D	; 13
     30a:	0e 94 ef 00 	call	0x1de	; 0x1de <CAN_Write>
    
    // Set identifier of TX Buffer 0 to 1
    TX_Data[0] = 0;
     30e:	10 92 14 01 	sts	0x0114, r1	; 0x800114 <TX_Data>
    CAN_Write(MCP_TXB0SIDH, TX_Data);
     312:	64 e1       	ldi	r22, 0x14	; 20
     314:	71 e0       	ldi	r23, 0x01	; 1
     316:	81 e3       	ldi	r24, 0x31	; 49
     318:	0e 94 ef 00 	call	0x1de	; 0x1de <CAN_Write>
    TX_Data[0] = 0x20;
     31c:	80 e2       	ldi	r24, 0x20	; 32
     31e:	80 93 14 01 	sts	0x0114, r24	; 0x800114 <TX_Data>
    CAN_Write(MCP_TXB0SIDL, TX_Data);
     322:	64 e1       	ldi	r22, 0x14	; 20
     324:	71 e0       	ldi	r23, 0x01	; 1
     326:	82 e3       	ldi	r24, 0x32	; 50
     328:	0e 94 ef 00 	call	0x1de	; 0x1de <CAN_Write>
    
    // Set identifier of RX Buffer 0 to 0
    TX_Data[0] = 0;
     32c:	10 92 14 01 	sts	0x0114, r1	; 0x800114 <TX_Data>
    CAN_Write(MCP_RXF0SIDH, TX_Data);
     330:	64 e1       	ldi	r22, 0x14	; 20
     332:	71 e0       	ldi	r23, 0x01	; 1
     334:	80 e0       	ldi	r24, 0x00	; 0
     336:	0e 94 ef 00 	call	0x1de	; 0x1de <CAN_Write>
    CAN_Write(MCP_RXF0SIDL, TX_Data);
     33a:	64 e1       	ldi	r22, 0x14	; 20
     33c:	71 e0       	ldi	r23, 0x01	; 1
     33e:	81 e0       	ldi	r24, 0x01	; 1
     340:	0e 94 ef 00 	call	0x1de	; 0x1de <CAN_Write>
    
    TX_Data[0] = 0x60;
     344:	80 e6       	ldi	r24, 0x60	; 96
     346:	80 93 14 01 	sts	0x0114, r24	; 0x800114 <TX_Data>
    CAN_Write(MCP_RXB0CTRL, TX_Data);
     34a:	64 e1       	ldi	r22, 0x14	; 20
     34c:	71 e0       	ldi	r23, 0x01	; 1
     34e:	0e 94 ef 00 	call	0x1de	; 0x1de <CAN_Write>
    
    // Switch to Normal Mode
    TX_Data[0] = (MCP_NORMAL);
     352:	10 92 14 01 	sts	0x0114, r1	; 0x800114 <TX_Data>
    CAN_Bit_Modify(MCP_CANCTRL, ((1 << 5)|(1 << 6)|(1 << 7)), TX_Data);
     356:	44 e1       	ldi	r20, 0x14	; 20
     358:	51 e0       	ldi	r21, 0x01	; 1
     35a:	60 ee       	ldi	r22, 0xE0	; 224
     35c:	8f e0       	ldi	r24, 0x0F	; 15
     35e:	0e 94 0a 01 	call	0x214	; 0x214 <CAN_Bit_Modify>
    
    RX_Data[0] = &Recv_Byte;
     362:	81 e1       	ldi	r24, 0x11	; 17
     364:	91 e0       	ldi	r25, 0x01	; 1
     366:	90 93 13 01 	sts	0x0113, r25	; 0x800113 <RX_Data+0x1>
     36a:	80 93 12 01 	sts	0x0112, r24	; 0x800112 <RX_Data>
    CAN_Read(MCP_CANSTAT, RX_Data);
     36e:	62 e1       	ldi	r22, 0x12	; 18
     370:	71 e0       	ldi	r23, 0x01	; 1
     372:	8e e0       	ldi	r24, 0x0E	; 14
     374:	0e 94 da 00 	call	0x1b4	; 0x1b4 <CAN_Read>
     378:	08 95       	ret

0000037a <CAN_Send_Message>:
        Sends a CAN Message on the CAN Bus

****************************************************************************/

void CAN_Send_Message(uint8_t Msg_Length, uint8_t* Transmit_Data)
{	
     37a:	ef 92       	push	r14
     37c:	ff 92       	push	r15
     37e:	0f 93       	push	r16
     380:	1f 93       	push	r17
     382:	cf 93       	push	r28
	// If invalid CAN Message Length don't perform transmit
	if (Msg_Length > 8)
     384:	89 30       	cpi	r24, 0x09	; 9
     386:	30 f5       	brcc	.+76     	; 0x3d4 <CAN_Send_Message+0x5a>
     388:	7b 01       	movw	r14, r22
     38a:	c8 2f       	mov	r28, r24
	{
		return;
	}
	// Set message length
	TX_Data[0] = Msg_Length;
     38c:	80 93 14 01 	sts	0x0114, r24	; 0x800114 <TX_Data>
	CAN_Write(MCP_TXB0DLC, TX_Data);
     390:	64 e1       	ldi	r22, 0x14	; 20
     392:	71 e0       	ldi	r23, 0x01	; 1
     394:	85 e3       	ldi	r24, 0x35	; 53
     396:	0e 94 ef 00 	call	0x1de	; 0x1de <CAN_Write>
	// Write in transmit data to required registers
	for (int i = 0; i < Msg_Length; i++)
     39a:	cc 23       	and	r28, r28
     39c:	91 f0       	breq	.+36     	; 0x3c2 <CAN_Send_Message+0x48>
     39e:	87 01       	movw	r16, r14
     3a0:	ec 0e       	add	r14, r28
     3a2:	f1 1c       	adc	r15, r1
     3a4:	c6 e3       	ldi	r28, 0x36	; 54
	{
		TX_Data[0] = Transmit_Data[i];
     3a6:	f8 01       	movw	r30, r16
     3a8:	81 91       	ld	r24, Z+
     3aa:	8f 01       	movw	r16, r30
     3ac:	80 93 14 01 	sts	0x0114, r24	; 0x800114 <TX_Data>
		CAN_Write(MCP_TXB0D0 + i, TX_Data);
     3b0:	64 e1       	ldi	r22, 0x14	; 20
     3b2:	71 e0       	ldi	r23, 0x01	; 1
     3b4:	8c 2f       	mov	r24, r28
     3b6:	0e 94 ef 00 	call	0x1de	; 0x1de <CAN_Write>
     3ba:	cf 5f       	subi	r28, 0xFF	; 255
	}
	// Set message length
	TX_Data[0] = Msg_Length;
	CAN_Write(MCP_TXB0DLC, TX_Data);
	// Write in transmit data to required registers
	for (int i = 0; i < Msg_Length; i++)
     3bc:	0e 15       	cp	r16, r14
     3be:	1f 05       	cpc	r17, r15
     3c0:	91 f7       	brne	.-28     	; 0x3a6 <CAN_Send_Message+0x2c>
	{
		TX_Data[0] = Transmit_Data[i];
		CAN_Write(MCP_TXB0D0 + i, TX_Data);
	}
	// Transmit message
	TX_Data[0] = 0xFF;
     3c2:	8f ef       	ldi	r24, 0xFF	; 255
     3c4:	80 93 14 01 	sts	0x0114, r24	; 0x800114 <TX_Data>
	CAN_Bit_Modify(MCP_TXB0CTRL, (1 << 3), TX_Data);
     3c8:	44 e1       	ldi	r20, 0x14	; 20
     3ca:	51 e0       	ldi	r21, 0x01	; 1
     3cc:	68 e0       	ldi	r22, 0x08	; 8
     3ce:	80 e3       	ldi	r24, 0x30	; 48
     3d0:	0e 94 0a 01 	call	0x214	; 0x214 <CAN_Bit_Modify>
}
     3d4:	cf 91       	pop	r28
     3d6:	1f 91       	pop	r17
     3d8:	0f 91       	pop	r16
     3da:	ff 90       	pop	r15
     3dc:	ef 90       	pop	r14
     3de:	08 95       	ret

000003e0 <CAN_Read_Message>:
        Reads CAN message from the CAN Bus

****************************************************************************/

void CAN_Read_Message(uint8_t** Recv_Data)
{
     3e0:	ef 92       	push	r14
     3e2:	ff 92       	push	r15
     3e4:	0f 93       	push	r16
     3e6:	1f 93       	push	r17
     3e8:	cf 93       	push	r28
     3ea:	df 93       	push	r29
     3ec:	08 2f       	mov	r16, r24
     3ee:	19 2f       	mov	r17, r25
	RX_Data[0] = &Recv_Byte;
     3f0:	81 e1       	ldi	r24, 0x11	; 17
     3f2:	91 e0       	ldi	r25, 0x01	; 1
     3f4:	90 93 13 01 	sts	0x0113, r25	; 0x800113 <RX_Data+0x1>
     3f8:	80 93 12 01 	sts	0x0112, r24	; 0x800112 <RX_Data>
	CAN_Read(MCP_RXB0DLC, RX_Data);
     3fc:	62 e1       	ldi	r22, 0x12	; 18
     3fe:	71 e0       	ldi	r23, 0x01	; 1
     400:	85 e6       	ldi	r24, 0x65	; 101
     402:	0e 94 da 00 	call	0x1b4	; 0x1b4 <CAN_Read>
	
	uint8_t Recv_Length = Recv_Byte;
     406:	20 91 11 01 	lds	r18, 0x0111	; 0x800111 <Recv_Byte>
	
	for (int i = 0; i < Recv_Length; i++)
     40a:	22 23       	and	r18, r18
     40c:	c1 f0       	breq	.+48     	; 0x43e <__LOCK_REGION_LENGTH__+0x3e>
     40e:	c0 2f       	mov	r28, r16
     410:	d1 2f       	mov	r29, r17
     412:	e0 2e       	mov	r14, r16
     414:	f1 2e       	mov	r15, r17
     416:	e2 0e       	add	r14, r18
     418:	f1 1c       	adc	r15, r1
     41a:	e2 0e       	add	r14, r18
     41c:	f1 1c       	adc	r15, r1
     41e:	16 e6       	ldi	r17, 0x66	; 102
	{
		RX_Data[0] = Recv_Data[i];
     420:	89 91       	ld	r24, Y+
     422:	99 91       	ld	r25, Y+
     424:	90 93 13 01 	sts	0x0113, r25	; 0x800113 <RX_Data+0x1>
     428:	80 93 12 01 	sts	0x0112, r24	; 0x800112 <RX_Data>
		CAN_Read(MCP_RXB0D0 + i, RX_Data);
     42c:	62 e1       	ldi	r22, 0x12	; 18
     42e:	71 e0       	ldi	r23, 0x01	; 1
     430:	81 2f       	mov	r24, r17
     432:	0e 94 da 00 	call	0x1b4	; 0x1b4 <CAN_Read>
     436:	1f 5f       	subi	r17, 0xFF	; 255
	RX_Data[0] = &Recv_Byte;
	CAN_Read(MCP_RXB0DLC, RX_Data);
	
	uint8_t Recv_Length = Recv_Byte;
	
	for (int i = 0; i < Recv_Length; i++)
     438:	ce 15       	cp	r28, r14
     43a:	df 05       	cpc	r29, r15
     43c:	89 f7       	brne	.-30     	; 0x420 <__LOCK_REGION_LENGTH__+0x20>
	{
		RX_Data[0] = Recv_Data[i];
		CAN_Read(MCP_RXB0D0 + i, RX_Data);
	}	
}
     43e:	df 91       	pop	r29
     440:	cf 91       	pop	r28
     442:	1f 91       	pop	r17
     444:	0f 91       	pop	r16
     446:	ff 90       	pop	r15
     448:	ef 90       	pop	r14
     44a:	08 95       	ret

0000044c <Write_Intensity_Data>:

****************************************************************************/
void Write_Intensity_Data(uint8_t * p_LIN_packet, intensity_data_t data_to_write)
{
    intensity_data_t temp = data_to_write;
    memcpy(p_LIN_packet+INTENSITY_DATA_INDEX, &temp, INTENSITY_DATA_LEN);
     44c:	fc 01       	movw	r30, r24
     44e:	60 83       	st	Z, r22
     450:	08 95       	ret

00000452 <Write_Position_Data>:

****************************************************************************/
void Write_Position_Data(uint8_t * p_LIN_packet, position_data_t data_to_write)
{
    position_data_t temp = data_to_write;
    memcpy(p_LIN_packet+POSITION_DATA_INDEX, &temp, POSITION_DATA_LEN);
     452:	fc 01       	movw	r30, r24
     454:	72 83       	std	Z+2, r23	; 0x02
     456:	61 83       	std	Z+1, r22	; 0x01
     458:	08 95       	ret

0000045a <Get_Pointer_To_Slave_Data>:
****************************************************************************/
uint8_t * Get_Pointer_To_Slave_Data(uint8_t * p_master_array, uint8_t slave_num)
{
    // This assumes the first section of the master array corresponds
    //  to the lowest slave number (the first slave)
    return (p_master_array+((slave_num-LOWEST_SLAVE_NUMBER)*LIN_PACKET_LEN));
     45a:	70 e0       	ldi	r23, 0x00	; 0
     45c:	61 50       	subi	r22, 0x01	; 1
     45e:	71 09       	sbc	r23, r1
     460:	9b 01       	movw	r18, r22
     462:	22 0f       	add	r18, r18
     464:	33 1f       	adc	r19, r19
     466:	62 0f       	add	r22, r18
     468:	73 1f       	adc	r23, r19
}
     46a:	86 0f       	add	r24, r22
     46c:	97 1f       	adc	r25, r23
     46e:	08 95       	ret

00000470 <process_event_if_pending>:
        Checks if an particular event is pending and if so, clears it, then
            calls the run functions to process the event

****************************************************************************/
static void process_event_if_pending(uint32_t event_mask)
{
     470:	cf 92       	push	r12
     472:	df 92       	push	r13
     474:	ef 92       	push	r14
     476:	ff 92       	push	r15
     478:	0f 93       	push	r16
     47a:	1f 93       	push	r17

****************************************************************************/
static bool is_event_pending(uint32_t event_mask)
{
    // If this event is pending
    if (event_mask == (Pending_Events & event_mask))
     47c:	00 91 15 01 	lds	r16, 0x0115	; 0x800115 <Pending_Events>
     480:	10 91 16 01 	lds	r17, 0x0116	; 0x800116 <Pending_Events+0x1>
     484:	20 91 17 01 	lds	r18, 0x0117	; 0x800117 <Pending_Events+0x2>
     488:	30 91 18 01 	lds	r19, 0x0118	; 0x800118 <Pending_Events+0x3>
     48c:	6b 01       	movw	r12, r22
     48e:	7c 01       	movw	r14, r24
     490:	c0 22       	and	r12, r16
     492:	d1 22       	and	r13, r17
     494:	e2 22       	and	r14, r18
     496:	f3 22       	and	r15, r19
     498:	6c 15       	cp	r22, r12
     49a:	7d 05       	cpc	r23, r13
     49c:	8e 05       	cpc	r24, r14
     49e:	9f 05       	cpc	r25, r15
     4a0:	a1 f4       	brne	.+40     	; 0x4ca <process_event_if_pending+0x5a>
    {
        // Clear Event
        Pending_Events &= ~event_mask;
     4a2:	6b 01       	movw	r12, r22
     4a4:	7c 01       	movw	r14, r24
     4a6:	c0 94       	com	r12
     4a8:	d0 94       	com	r13
     4aa:	e0 94       	com	r14
     4ac:	f0 94       	com	r15
     4ae:	0c 21       	and	r16, r12
     4b0:	1d 21       	and	r17, r13
     4b2:	2e 21       	and	r18, r14
     4b4:	3f 21       	and	r19, r15
     4b6:	00 93 15 01 	sts	0x0115, r16	; 0x800115 <Pending_Events>
     4ba:	10 93 16 01 	sts	0x0116, r17	; 0x800116 <Pending_Events+0x1>
     4be:	20 93 17 01 	sts	0x0117, r18	; 0x800117 <Pending_Events+0x2>
     4c2:	30 93 18 01 	sts	0x0118, r19	; 0x800118 <Pending_Events+0x3>
{
    // If event is pending
    if (is_event_pending(event_mask))
    {
        // Run the services with this event
        Run_Services(event_mask);
     4c6:	0e 94 db 02 	call	0x5b6	; 0x5b6 <Run_Services>
    }
}
     4ca:	1f 91       	pop	r17
     4cc:	0f 91       	pop	r16
     4ce:	ff 90       	pop	r15
     4d0:	ef 90       	pop	r14
     4d2:	df 90       	pop	r13
     4d4:	cf 90       	pop	r12
     4d6:	08 95       	ret

000004d8 <Post_Event>:
    Description
        Posts an event to the event list

****************************************************************************/
void Post_Event(uint32_t event_mask)
{
     4d8:	0f 93       	push	r16
     4da:	1f 93       	push	r17
    // Set flag in event list
    Pending_Events |= event_mask;
     4dc:	00 91 15 01 	lds	r16, 0x0115	; 0x800115 <Pending_Events>
     4e0:	10 91 16 01 	lds	r17, 0x0116	; 0x800116 <Pending_Events+0x1>
     4e4:	20 91 17 01 	lds	r18, 0x0117	; 0x800117 <Pending_Events+0x2>
     4e8:	30 91 18 01 	lds	r19, 0x0118	; 0x800118 <Pending_Events+0x3>
     4ec:	dc 01       	movw	r26, r24
     4ee:	cb 01       	movw	r24, r22
     4f0:	80 2b       	or	r24, r16
     4f2:	91 2b       	or	r25, r17
     4f4:	a2 2b       	or	r26, r18
     4f6:	b3 2b       	or	r27, r19
     4f8:	80 93 15 01 	sts	0x0115, r24	; 0x800115 <Pending_Events>
     4fc:	90 93 16 01 	sts	0x0116, r25	; 0x800116 <Pending_Events+0x1>
     500:	a0 93 17 01 	sts	0x0117, r26	; 0x800117 <Pending_Events+0x2>
     504:	b0 93 18 01 	sts	0x0118, r27	; 0x800118 <Pending_Events+0x3>
}
     508:	1f 91       	pop	r17
     50a:	0f 91       	pop	r16
     50c:	08 95       	ret

0000050e <Run_Events>:
    // Run no-end main loop
    while (1)
    {
        // Loop through all events
        #if (1 <= NUM_EVENTS)
        process_event_if_pending(EVENT_01);
     50e:	61 e0       	ldi	r22, 0x01	; 1
     510:	70 e0       	ldi	r23, 0x00	; 0
     512:	80 e0       	ldi	r24, 0x00	; 0
     514:	90 e0       	ldi	r25, 0x00	; 0
     516:	0e 94 38 02 	call	0x470	; 0x470 <process_event_if_pending>
        #endif
        #if (2 <= NUM_EVENTS)
        process_event_if_pending(EVENT_02);
     51a:	62 e0       	ldi	r22, 0x02	; 2
     51c:	70 e0       	ldi	r23, 0x00	; 0
     51e:	80 e0       	ldi	r24, 0x00	; 0
     520:	90 e0       	ldi	r25, 0x00	; 0
     522:	0e 94 38 02 	call	0x470	; 0x470 <process_event_if_pending>
        #endif
        #if (3 <= NUM_EVENTS)
        process_event_if_pending(EVENT_03);
     526:	64 e0       	ldi	r22, 0x04	; 4
     528:	70 e0       	ldi	r23, 0x00	; 0
     52a:	80 e0       	ldi	r24, 0x00	; 0
     52c:	90 e0       	ldi	r25, 0x00	; 0
     52e:	0e 94 38 02 	call	0x470	; 0x470 <process_event_if_pending>
        #endif
        #if (4 <= NUM_EVENTS)
        process_event_if_pending(EVENT_04);
     532:	68 e0       	ldi	r22, 0x08	; 8
     534:	70 e0       	ldi	r23, 0x00	; 0
     536:	80 e0       	ldi	r24, 0x00	; 0
     538:	90 e0       	ldi	r25, 0x00	; 0
     53a:	0e 94 38 02 	call	0x470	; 0x470 <process_event_if_pending>
        #endif
        #if (5 <= NUM_EVENTS)
        process_event_if_pending(EVENT_05);
     53e:	60 e1       	ldi	r22, 0x10	; 16
     540:	70 e0       	ldi	r23, 0x00	; 0
     542:	80 e0       	ldi	r24, 0x00	; 0
     544:	90 e0       	ldi	r25, 0x00	; 0
     546:	0e 94 38 02 	call	0x470	; 0x470 <process_event_if_pending>
        #endif
        #if (6 <= NUM_EVENTS)
        process_event_if_pending(EVENT_06);
     54a:	60 e2       	ldi	r22, 0x20	; 32
     54c:	70 e0       	ldi	r23, 0x00	; 0
     54e:	80 e0       	ldi	r24, 0x00	; 0
     550:	90 e0       	ldi	r25, 0x00	; 0
     552:	0e 94 38 02 	call	0x470	; 0x470 <process_event_if_pending>
        #endif
        #if (7 <= NUM_EVENTS)
        process_event_if_pending(EVENT_07);
     556:	60 e4       	ldi	r22, 0x40	; 64
     558:	70 e0       	ldi	r23, 0x00	; 0
     55a:	80 e0       	ldi	r24, 0x00	; 0
     55c:	90 e0       	ldi	r25, 0x00	; 0
     55e:	0e 94 38 02 	call	0x470	; 0x470 <process_event_if_pending>
        #endif
        #if (8 <= NUM_EVENTS)
        process_event_if_pending(EVENT_08);
     562:	60 e8       	ldi	r22, 0x80	; 128
     564:	70 e0       	ldi	r23, 0x00	; 0
     566:	80 e0       	ldi	r24, 0x00	; 0
     568:	90 e0       	ldi	r25, 0x00	; 0
     56a:	0e 94 38 02 	call	0x470	; 0x470 <process_event_if_pending>
        #endif
        #if (9 <= NUM_EVENTS)
        process_event_if_pending(EVENT_09);
     56e:	60 e0       	ldi	r22, 0x00	; 0
     570:	71 e0       	ldi	r23, 0x01	; 1
     572:	80 e0       	ldi	r24, 0x00	; 0
     574:	90 e0       	ldi	r25, 0x00	; 0
     576:	0e 94 38 02 	call	0x470	; 0x470 <process_event_if_pending>
        #endif
        #if (10 <= NUM_EVENTS)
        process_event_if_pending(EVENT_10);
     57a:	60 e0       	ldi	r22, 0x00	; 0
     57c:	72 e0       	ldi	r23, 0x02	; 2
     57e:	80 e0       	ldi	r24, 0x00	; 0
     580:	90 e0       	ldi	r25, 0x00	; 0
     582:	0e 94 38 02 	call	0x470	; 0x470 <process_event_if_pending>
        #endif
        #if (11 <= NUM_EVENTS)
        process_event_if_pending(EVENT_11);
     586:	60 e0       	ldi	r22, 0x00	; 0
     588:	74 e0       	ldi	r23, 0x04	; 4
     58a:	80 e0       	ldi	r24, 0x00	; 0
     58c:	90 e0       	ldi	r25, 0x00	; 0
     58e:	0e 94 38 02 	call	0x470	; 0x470 <process_event_if_pending>
        process_event_if_pending(EVENT_31);
        #endif
        #if (32 <= NUM_EVENTS)
        process_event_if_pending(EVENT_32);
        #endif
    }
     592:	bd cf       	rjmp	.-134    	; 0x50e <Run_Events>

00000594 <Initialize_Framework>:
****************************************************************************/
void Initialize_Framework(void)
{
    // Call all initializers
    #ifdef INITIALIZER_00
    INITIALIZER_00();
     594:	0e 94 8d 08 	call	0x111a	; 0x111a <Init_Timer_Module>
    #endif
    #ifdef INITIALIZER_01
    INITIALIZER_01();
     598:	0e 94 3f 04 	call	0x87e	; 0x87e <Init_LIN_XCVR_WD_Kicker>
    #endif
    #ifdef INITIALIZER_02
    INITIALIZER_02();
     59c:	0e 94 e0 05 	call	0xbc0	; 0xbc0 <Init_PWM_Module>
    #endif
    #ifdef INITIALIZER_03
    INITIALIZER_03();
     5a0:	0e 94 ec 02 	call	0x5d8	; 0x5d8 <Init_IOC_Module>
    #endif
    #ifdef INITIALIZER_04
    INITIALIZER_04();
     5a4:	0e 94 47 00 	call	0x8e	; 0x8e <Init_ADC_Module>
    #endif
    #ifdef INITIALIZER_05
    INITIALIZER_05();
     5a8:	0e 94 84 00 	call	0x108	; 0x108 <Init_Analog_Servo_Driver>
    #endif
    #ifdef INITIALIZER_06
    INITIALIZER_06();
     5ac:	0e 94 3c 08 	call	0x1078	; 0x1078 <Init_SPI_Service>
    #endif
    #ifdef INITIALIZER_07
    INITIALIZER_07();
     5b0:	0e 94 75 04 	call	0x8ea	; 0x8ea <Init_Master_Service>
     5b4:	08 95       	ret

000005b6 <Run_Services>:
        Calls the services which process events, 
            can service up to 99 functions

****************************************************************************/
void Run_Services(uint32_t event)
{
     5b6:	cf 92       	push	r12
     5b8:	df 92       	push	r13
     5ba:	ef 92       	push	r14
     5bc:	ff 92       	push	r15
     5be:	6b 01       	movw	r12, r22
     5c0:	7c 01       	movw	r14, r24
    // Call all services
    #ifdef SERVICE_00
    SERVICE_00(event);
     5c2:	0e 94 bb 04 	call	0x976	; 0x976 <Run_Master_Service>
    #endif
    #ifdef SERVICE_01
    SERVICE_01(event);
     5c6:	c7 01       	movw	r24, r14
     5c8:	b6 01       	movw	r22, r12
     5ca:	0e 94 3f 08 	call	0x107e	; 0x107e <Run_SPI_Service>
    SERVICE_14(event);
    #endif
    #ifdef SERVICE_15
    SERVICE_15(event);
    #endif
}
     5ce:	ff 90       	pop	r15
     5d0:	ef 90       	pop	r14
     5d2:	df 90       	pop	r13
     5d4:	cf 90       	pop	r12
     5d6:	08 95       	ret

000005d8 <Init_IOC_Module>:
    // The I/O Clock has no reason to be halted currently, but if it is
    // i.e. when it is coming out of sleep mode, I/O clock requires to be
    // enabled.
         
    // Setting up PB6 as an input pin
    DDRB &= ~(1<<INT0_PIN);
     5d8:	26 98       	cbi	0x04, 6	; 4
         
    // Set External Interrupt Control Register A to detect toggles.
    EICRA &= ~(1<<ISC00);
     5da:	e9 e6       	ldi	r30, 0x69	; 105
     5dc:	f0 e0       	ldi	r31, 0x00	; 0
     5de:	80 81       	ld	r24, Z
     5e0:	8e 7f       	andi	r24, 0xFE	; 254
     5e2:	80 83       	st	Z, r24
    EICRA |= (1<<ISC01);
     5e4:	80 81       	ld	r24, Z
     5e6:	82 60       	ori	r24, 0x02	; 2
     5e8:	80 83       	st	Z, r24
         
    // When the INT0 bit is set (one) and the I-bit in the Status Register (SREG) 
    // is set (one), the external pin interrupt is enabled.
    EIMSK |= (1<<INT0);
     5ea:	e8 9a       	sbi	0x1d, 0	; 29
         
    // Clear External Interrupt Flag
    EIFR |= (1<<INTF0);
     5ec:	e0 9a       	sbi	0x1c, 0	; 28
     5ee:	08 95       	ret

000005f0 <query_counter>:
}

uint32_t query_counter(void)
{
	return counter;
     5f0:	60 91 19 01 	lds	r22, 0x0119	; 0x800119 <counter>
     5f4:	70 91 1a 01 	lds	r23, 0x011A	; 0x80011a <counter+0x1>
     5f8:	80 91 1b 01 	lds	r24, 0x011B	; 0x80011b <counter+0x2>
     5fc:	90 91 1c 01 	lds	r25, 0x011C	; 0x80011c <counter+0x3>
}
     600:	08 95       	ret

00000602 <__vector_1>:
    Description
        Handles IOC specific interrupts

****************************************************************************/
ISR(INT0_vect)
{
     602:	1f 92       	push	r1
     604:	0f 92       	push	r0
     606:	0f b6       	in	r0, 0x3f	; 63
     608:	0f 92       	push	r0
     60a:	11 24       	eor	r1, r1
     60c:	0f 93       	push	r16
     60e:	1f 93       	push	r17
     610:	2f 93       	push	r18
     612:	3f 93       	push	r19
     614:	4f 93       	push	r20
     616:	5f 93       	push	r21
     618:	6f 93       	push	r22
     61a:	7f 93       	push	r23
     61c:	8f 93       	push	r24
     61e:	9f 93       	push	r25
     620:	af 93       	push	r26
     622:	bf 93       	push	r27
     624:	ef 93       	push	r30
     626:	ff 93       	push	r31
     628:	cf 93       	push	r28
     62a:	df 93       	push	r29
     62c:	cd b7       	in	r28, 0x3d	; 61
     62e:	de b7       	in	r29, 0x3e	; 62
     630:	61 97       	sbiw	r28, 0x11	; 17
     632:	de bf       	out	0x3e, r29	; 62
     634:	cd bf       	out	0x3d, r28	; 61
	counter++;
     636:	80 91 19 01 	lds	r24, 0x0119	; 0x800119 <counter>
     63a:	90 91 1a 01 	lds	r25, 0x011A	; 0x80011a <counter+0x1>
     63e:	a0 91 1b 01 	lds	r26, 0x011B	; 0x80011b <counter+0x2>
     642:	b0 91 1c 01 	lds	r27, 0x011C	; 0x80011c <counter+0x3>
     646:	01 96       	adiw	r24, 0x01	; 1
     648:	a1 1d       	adc	r26, r1
     64a:	b1 1d       	adc	r27, r1
     64c:	80 93 19 01 	sts	0x0119, r24	; 0x800119 <counter>
     650:	90 93 1a 01 	sts	0x011A, r25	; 0x80011a <counter+0x1>
     654:	a0 93 1b 01 	sts	0x011B, r26	; 0x80011b <counter+0x2>
     658:	b0 93 1c 01 	sts	0x011C, r27	; 0x80011c <counter+0x3>
	uint8_t* Variable_List[8] = {0};
     65c:	8e 01       	movw	r16, r28
     65e:	0f 5f       	subi	r16, 0xFF	; 255
     660:	1f 4f       	sbci	r17, 0xFF	; 255
     662:	80 e1       	ldi	r24, 0x10	; 16
     664:	f8 01       	movw	r30, r16
     666:	11 92       	st	Z+, r1
     668:	8a 95       	dec	r24
     66a:	e9 f7       	brne	.-6      	; 0x666 <__vector_1+0x64>
	Fill_Variable_List(&Variable_List[0]);
     66c:	c8 01       	movw	r24, r16
     66e:	0e 94 ea 04 	call	0x9d4	; 0x9d4 <Fill_Variable_List>
	CAN_Read_Message(Variable_List);
     672:	c8 01       	movw	r24, r16
     674:	0e 94 f0 01 	call	0x3e0	; 0x3e0 <CAN_Read_Message>
	uint8_t TX_Data[1] = {0};
     678:	19 8a       	std	Y+17, r1	; 0x11
	CAN_Bit_Modify(MCP_CANINTF, 0xFF, TX_Data); 
     67a:	ae 01       	movw	r20, r28
     67c:	4f 5e       	subi	r20, 0xEF	; 239
     67e:	5f 4f       	sbci	r21, 0xFF	; 255
     680:	6f ef       	ldi	r22, 0xFF	; 255
     682:	8c e2       	ldi	r24, 0x2C	; 44
     684:	0e 94 0a 01 	call	0x214	; 0x214 <CAN_Bit_Modify>
}
     688:	61 96       	adiw	r28, 0x11	; 17
     68a:	0f b6       	in	r0, 0x3f	; 63
     68c:	f8 94       	cli
     68e:	de bf       	out	0x3e, r29	; 62
     690:	0f be       	out	0x3f, r0	; 63
     692:	cd bf       	out	0x3d, r28	; 61
     694:	df 91       	pop	r29
     696:	cf 91       	pop	r28
     698:	ff 91       	pop	r31
     69a:	ef 91       	pop	r30
     69c:	bf 91       	pop	r27
     69e:	af 91       	pop	r26
     6a0:	9f 91       	pop	r25
     6a2:	8f 91       	pop	r24
     6a4:	7f 91       	pop	r23
     6a6:	6f 91       	pop	r22
     6a8:	5f 91       	pop	r21
     6aa:	4f 91       	pop	r20
     6ac:	3f 91       	pop	r19
     6ae:	2f 91       	pop	r18
     6b0:	1f 91       	pop	r17
     6b2:	0f 91       	pop	r16
     6b4:	0f 90       	pop	r0
     6b6:	0f be       	out	0x3f, r0	; 63
     6b8:	0f 90       	pop	r0
     6ba:	1f 90       	pop	r1
     6bc:	18 95       	reti

000006be <lin_init>:
//  Warning: none
//------------------------------------------------------------------------------
unsigned char lin_init (unsigned char l_type, unsigned long b_rate) {
			
    // Pull-up on TxLIN & RxLIN (one by one to use bit-addressing)
    LIN_PORT_DIR &= ~(1<<LIN_INPUT_PIN );
     6be:	08 98       	cbi	0x01, 0	; 1
    LIN_PORT_DIR &= ~(1<<LIN_OUTPUT_PIN);
     6c0:	09 98       	cbi	0x01, 1	; 1
    LIN_PORT_OUT |=  (1<<LIN_INPUT_PIN );
     6c2:	10 9a       	sbi	0x02, 0	; 2
    LIN_PORT_OUT |=  (1<<LIN_OUTPUT_PIN);
     6c4:	11 9a       	sbi	0x02, 1	; 2

    Lin_full_reset();
     6c6:	90 e8       	ldi	r25, 0x80	; 128
     6c8:	90 93 c8 00 	sts	0x00C8, r25	; 0x8000c8 <__EEPROM_REGION_LENGTH__+0x7f00c8>
     6cc:	10 92 ca 00 	sts	0x00CA, r1	; 0x8000ca <__EEPROM_REGION_LENGTH__+0x7f00ca>
     6d0:	ed ec       	ldi	r30, 0xCD	; 205
     6d2:	f0 e0       	ldi	r31, 0x00	; 0
     6d4:	10 82       	st	Z, r1
     6d6:	ae ec       	ldi	r26, 0xCE	; 206
     6d8:	b0 e0       	ldi	r27, 0x00	; 0
     6da:	1c 92       	st	X, r1
    Lin_set_baudrate(b_rate);
     6dc:	25 2f       	mov	r18, r21
     6de:	33 27       	eor	r19, r19
     6e0:	2c 93       	st	X, r18
     6e2:	40 83       	st	Z, r20
			
    if (l_type == LIN_1X) {
     6e4:	80 34       	cpi	r24, 0x40	; 64
     6e6:	21 f4       	brne	.+8      	; 0x6f0 <lin_init+0x32>
    			Lin_1x_enable();
     6e8:	88 e4       	ldi	r24, 0x48	; 72
     6ea:	80 93 c8 00 	sts	0x00C8, r24	; 0x8000c8 <__EEPROM_REGION_LENGTH__+0x7f00c8>
     6ee:	05 c0       	rjmp	.+10     	; 0x6fa <lin_init+0x3c>
    } else if (l_type == LIN_2X) {
     6f0:	81 11       	cpse	r24, r1
     6f2:	0d c0       	rjmp	.+26     	; 0x70e <lin_init+0x50>
    			Lin_2x_enable();
     6f4:	88 e0       	ldi	r24, 0x08	; 8
     6f6:	80 93 c8 00 	sts	0x00C8, r24	; 0x8000c8 <__EEPROM_REGION_LENGTH__+0x7f00c8>
    } else {
    			return 0;
    }
    // If LIN is interrupt driven, enable the 2 following lines
    Lin_set_enable_it();
     6fa:	8f e0       	ldi	r24, 0x0F	; 15
     6fc:	80 93 ca 00 	sts	0x00CA, r24	; 0x8000ca <__EEPROM_REGION_LENGTH__+0x7f00ca>
    // Disable resync for the master only
    if (IS_MASTER_NODE)
    {
      // TODO: Look into this and decide if we NEED to disable autosync
      // Disable autosync
      LINBTR |= 1<<LDISR;
     700:	ec ec       	ldi	r30, 0xCC	; 204
     702:	f0 e0       	ldi	r31, 0x00	; 0
     704:	80 81       	ld	r24, Z
     706:	80 68       	ori	r24, 0x80	; 128
     708:	80 83       	st	Z, r24
    }
    
    return 1;
     70a:	81 e0       	ldi	r24, 0x01	; 1
     70c:	08 95       	ret
    if (l_type == LIN_1X) {
    			Lin_1x_enable();
    } else if (l_type == LIN_2X) {
    			Lin_2x_enable();
    } else {
    			return 0;
     70e:	80 e0       	ldi	r24, 0x00	; 0
      // Disable autosync
      LINBTR |= 1<<LDISR;
    }
    
    return 1;
}
     710:	08 95       	ret

00000712 <lin_tx_header>:
//
//  Warning: none
//------------------------------------------------------------------------------
unsigned char lin_tx_header (unsigned char l_type, unsigned char l_id, unsigned char l_len) {                                                                                        
                                                                                                                                                                         
    Lin_abort();    // Useful if controller is still in 'lin_tx_response'                                                        
     712:	e8 ec       	ldi	r30, 0xC8	; 200
     714:	f0 e0       	ldi	r31, 0x00	; 0
     716:	90 81       	ld	r25, Z
     718:	9c 7f       	andi	r25, 0xFC	; 252
     71a:	90 83       	st	Z, r25
    				// or in 'lin_rx_response' mode. Note that when these                                                                    
    				// modes are running, writing in LIN registers is                                                                        
    				// disabled and the ID cannot be set in the controller.                                                                  
    				// (c.f. “Break-in-Data” behavior”)
    				
    if (l_type == LIN_1X) {
     71c:	80 34       	cpi	r24, 0x40	; 64
     71e:	c1 f4       	brne	.+48     	; 0x750 <lin_tx_header+0x3e>
        Lin_1x_set_id(l_id);                                                                                                                             
     720:	e0 ed       	ldi	r30, 0xD0	; 208
     722:	f0 e0       	ldi	r31, 0x00	; 0
     724:	80 81       	ld	r24, Z
     726:	80 7f       	andi	r24, 0xF0	; 240
     728:	80 83       	st	Z, r24
     72a:	80 81       	ld	r24, Z
     72c:	6f 70       	andi	r22, 0x0F	; 15
     72e:	68 2b       	or	r22, r24
     730:	60 83       	st	Z, r22
        Lin_1x_set_len(l_len);
     732:	80 81       	ld	r24, Z
     734:	8f 7c       	andi	r24, 0xCF	; 207
     736:	80 83       	st	Z, r24
     738:	80 81       	ld	r24, Z
     73a:	50 e0       	ldi	r21, 0x00	; 0
     73c:	4c 5f       	subi	r20, 0xFC	; 252
     73e:	5f 4f       	sbci	r21, 0xFF	; 255
     740:	44 0f       	add	r20, r20
     742:	55 1f       	adc	r21, r21
     744:	44 0f       	add	r20, r20
     746:	55 1f       	adc	r21, r21
     748:	40 73       	andi	r20, 0x30	; 48
     74a:	48 2b       	or	r20, r24
     74c:	40 83       	st	Z, r20
     74e:	0b c0       	rjmp	.+22     	; 0x766 <lin_tx_header+0x54>
    } else if (l_type == LIN_2X) {
     750:	81 11       	cpse	r24, r1
     752:	13 c0       	rjmp	.+38     	; 0x77a <lin_tx_header+0x68>
        Lin_2x_set_id(l_id);        // No length transported in LIN 2.X
     754:	e0 ed       	ldi	r30, 0xD0	; 208
     756:	f0 e0       	ldi	r31, 0x00	; 0
     758:	80 81       	ld	r24, Z
     75a:	80 7c       	andi	r24, 0xC0	; 192
     75c:	80 83       	st	Z, r24
     75e:	80 81       	ld	r24, Z
     760:	6f 73       	andi	r22, 0x3F	; 63
     762:	68 2b       	or	r22, r24
     764:	60 83       	st	Z, r22
    } else {
        return 0;
    }
    
    Lin_tx_header();            // Set command
     766:	e8 ec       	ldi	r30, 0xC8	; 200
     768:	f0 e0       	ldi	r31, 0x00	; 0
     76a:	80 81       	ld	r24, Z
     76c:	8c 7f       	andi	r24, 0xFC	; 252
     76e:	80 83       	st	Z, r24
     770:	80 81       	ld	r24, Z
     772:	81 60       	ori	r24, 0x01	; 1
     774:	80 83       	st	Z, r24
    return 1;
     776:	81 e0       	ldi	r24, 0x01	; 1
     778:	08 95       	ret
        Lin_1x_set_id(l_id);                                                                                                                             
        Lin_1x_set_len(l_len);
    } else if (l_type == LIN_2X) {
        Lin_2x_set_id(l_id);        // No length transported in LIN 2.X
    } else {
        return 0;
     77a:	80 e0       	ldi	r24, 0x00	; 0
    }
    
    Lin_tx_header();            // Set command
    return 1;
}
     77c:	08 95       	ret

0000077e <lin_rx_response>:
//
//  Warning: none
//------------------------------------------------------------------------------
unsigned char lin_rx_response (unsigned char l_type, unsigned char l_len) {                                                                                                         
                                                                                                                                                                      
    if (l_type == LIN_1X) {                                                                                                                                   
     77e:	80 34       	cpi	r24, 0x40	; 64
     780:	31 f4       	brne	.+12     	; 0x78e <lin_rx_response+0x10>
        Lin_1x_set_type();              // Change is necessary                                        
     782:	e8 ec       	ldi	r30, 0xC8	; 200
     784:	f0 e0       	ldi	r31, 0x00	; 0
     786:	80 81       	ld	r24, Z
     788:	80 64       	ori	r24, 0x40	; 64
     78a:	80 83       	st	Z, r24
     78c:	09 c0       	rjmp	.+18     	; 0x7a0 <lin_rx_response+0x22>
    } else if (l_type == LIN_2X) {                                                                                                                            
     78e:	81 11       	cpse	r24, r1
     790:	11 c0       	rjmp	.+34     	; 0x7b4 <lin_rx_response+0x36>
        Lin_2x_set_type();              // Change is necessary                                        
     792:	e8 ec       	ldi	r30, 0xC8	; 200
     794:	f0 e0       	ldi	r31, 0x00	; 0
     796:	80 81       	ld	r24, Z
     798:	80 83       	st	Z, r24
        Lin_set_rx_len(l_len);                                                                                                                        
     79a:	6f 70       	andi	r22, 0x0F	; 15
     79c:	60 93 cf 00 	sts	0x00CF, r22	; 0x8000cf <__EEPROM_REGION_LENGTH__+0x7f00cf>
    } else {                                                                                                                                                  
        return 0;                                                                                                                                     
    }                                                                                                                                                         
                                                                                                                                                              
    Lin_rx_response();          // Set command                                                
     7a0:	e8 ec       	ldi	r30, 0xC8	; 200
     7a2:	f0 e0       	ldi	r31, 0x00	; 0
     7a4:	80 81       	ld	r24, Z
     7a6:	8c 7f       	andi	r24, 0xFC	; 252
     7a8:	80 83       	st	Z, r24
     7aa:	80 81       	ld	r24, Z
     7ac:	82 60       	ori	r24, 0x02	; 2
     7ae:	80 83       	st	Z, r24
    return 1;                                                                                                                                                 
     7b0:	81 e0       	ldi	r24, 0x01	; 1
     7b2:	08 95       	ret
        Lin_1x_set_type();              // Change is necessary                                        
    } else if (l_type == LIN_2X) {                                                                                                                            
        Lin_2x_set_type();              // Change is necessary                                        
        Lin_set_rx_len(l_len);                                                                                                                        
    } else {                                                                                                                                                  
        return 0;                                                                                                                                     
     7b4:	80 e0       	ldi	r24, 0x00	; 0
    }                                                                                                                                                         
                                                                                                                                                              
    Lin_rx_response();          // Set command                                                
    return 1;                                                                                                                                                 
}
     7b6:	08 95       	ret

000007b8 <lin_tx_response>:
//------------------------------------------------------------------------------
unsigned char lin_tx_response (unsigned char l_type, unsigned char *l_data, unsigned char l_len) {                                                                                     
                                                                                                                                                                         
unsigned char i;                                                                                                                                                         
                                                                                                                                                                         
    if (l_type == LIN_1X) {                                                                                                                                      
     7b8:	80 34       	cpi	r24, 0x40	; 64
     7ba:	31 f4       	brne	.+12     	; 0x7c8 <lin_tx_response+0x10>
        Lin_1x_set_type();              // Change is necessary                                           
     7bc:	e8 ec       	ldi	r30, 0xC8	; 200
     7be:	f0 e0       	ldi	r31, 0x00	; 0
     7c0:	80 81       	ld	r24, Z
     7c2:	80 64       	ori	r24, 0x40	; 64
     7c4:	80 83       	st	Z, r24
     7c6:	0b c0       	rjmp	.+22     	; 0x7de <lin_tx_response+0x26>
    } else if (l_type == LIN_2X) {                                                                                                                               
     7c8:	81 11       	cpse	r24, r1
     7ca:	25 c0       	rjmp	.+74     	; 0x816 <lin_tx_response+0x5e>
        Lin_2x_set_type();				// Change is necessary                                           
     7cc:	e8 ec       	ldi	r30, 0xC8	; 200
     7ce:	f0 e0       	ldi	r31, 0x00	; 0
     7d0:	80 81       	ld	r24, Z
     7d2:	80 83       	st	Z, r24
        Lin_set_tx_len(l_len);                                                                                                                           
     7d4:	84 2f       	mov	r24, r20
     7d6:	82 95       	swap	r24
     7d8:	80 7f       	andi	r24, 0xF0	; 240
     7da:	80 93 cf 00 	sts	0x00CF, r24	; 0x8000cf <__EEPROM_REGION_LENGTH__+0x7f00cf>
    } else {                                                                                                                                                     
        return 0;                                                                                                                                        
    }                                                                                                                                                            
                                                                                                                                                                 
    Lin_clear_index();                  // Data processing                                               
     7de:	10 92 d1 00 	sts	0x00D1, r1	; 0x8000d1 <__EEPROM_REGION_LENGTH__+0x7f00d1>
    for (i = 0; i < l_len; i++) {                                                                                                                                
     7e2:	44 23       	and	r20, r20
     7e4:	71 f0       	breq	.+28     	; 0x802 <lin_tx_response+0x4a>
     7e6:	fb 01       	movw	r30, r22
     7e8:	41 50       	subi	r20, 0x01	; 1
     7ea:	50 e0       	ldi	r21, 0x00	; 0
     7ec:	4f 5f       	subi	r20, 0xFF	; 255
     7ee:	5f 4f       	sbci	r21, 0xFF	; 255
     7f0:	64 0f       	add	r22, r20
     7f2:	75 1f       	adc	r23, r21
        Lin_set_data(*l_data++);                                                                                                                         
     7f4:	a2 ed       	ldi	r26, 0xD2	; 210
     7f6:	b0 e0       	ldi	r27, 0x00	; 0
     7f8:	81 91       	ld	r24, Z+
     7fa:	8c 93       	st	X, r24
    } else {                                                                                                                                                     
        return 0;                                                                                                                                        
    }                                                                                                                                                            
                                                                                                                                                                 
    Lin_clear_index();                  // Data processing                                               
    for (i = 0; i < l_len; i++) {                                                                                                                                
     7fc:	e6 17       	cp	r30, r22
     7fe:	f7 07       	cpc	r31, r23
     800:	d9 f7       	brne	.-10     	; 0x7f8 <lin_tx_response+0x40>
        Lin_set_data(*l_data++);                                                                                                                         
    }                                                                                                                                                            
                                                                                                                                                                 
    Lin_tx_response();          // Set command                                                   
     802:	e8 ec       	ldi	r30, 0xC8	; 200
     804:	f0 e0       	ldi	r31, 0x00	; 0
     806:	80 81       	ld	r24, Z
     808:	8c 7f       	andi	r24, 0xFC	; 252
     80a:	80 83       	st	Z, r24
     80c:	80 81       	ld	r24, Z
     80e:	83 60       	ori	r24, 0x03	; 3
     810:	80 83       	st	Z, r24
    return 1;                                                                                                                                                    
     812:	81 e0       	ldi	r24, 0x01	; 1
     814:	08 95       	ret
        Lin_1x_set_type();              // Change is necessary                                           
    } else if (l_type == LIN_2X) {                                                                                                                               
        Lin_2x_set_type();				// Change is necessary                                           
        Lin_set_tx_len(l_len);                                                                                                                           
    } else {                                                                                                                                                     
        return 0;                                                                                                                                        
     816:	80 e0       	ldi	r24, 0x00	; 0
        Lin_set_data(*l_data++);                                                                                                                         
    }                                                                                                                                                            
                                                                                                                                                                 
    Lin_tx_response();          // Set command                                                   
    return 1;                                                                                                                                                    
}
     818:	08 95       	ret

0000081a <lin_get_response>:
//------------------------------------------------------------------------------
void lin_get_response (unsigned char *l_data) {                                                                                                                 
                                                                                                                                                                
unsigned char i, l_len;                                                                                                                                         
                                                                                                                                                                
    l_len = Lin_get_len();                                                                                                                        
     81a:	20 91 cf 00 	lds	r18, 0x00CF	; 0x8000cf <__EEPROM_REGION_LENGTH__+0x7f00cf>
     81e:	2f 70       	andi	r18, 0x0F	; 15
    Lin_clear_index();                                                                                                                                  
     820:	10 92 d1 00 	sts	0x00D1, r1	; 0x8000d1 <__EEPROM_REGION_LENGTH__+0x7f00d1>
    for (i = 0; i < l_len; i++) {                                                                                                                       
     824:	22 23       	and	r18, r18
     826:	71 f0       	breq	.+28     	; 0x844 <lin_get_response+0x2a>
     828:	fc 01       	movw	r30, r24
     82a:	21 50       	subi	r18, 0x01	; 1
     82c:	30 e0       	ldi	r19, 0x00	; 0
     82e:	2f 5f       	subi	r18, 0xFF	; 255
     830:	3f 4f       	sbci	r19, 0xFF	; 255
     832:	82 0f       	add	r24, r18
     834:	93 1f       	adc	r25, r19
        (*l_data++) = Lin_get_data();                                                                                                           
     836:	a2 ed       	ldi	r26, 0xD2	; 210
     838:	b0 e0       	ldi	r27, 0x00	; 0
     83a:	2c 91       	ld	r18, X
     83c:	21 93       	st	Z+, r18
                                                                                                                                                                
unsigned char i, l_len;                                                                                                                                         
                                                                                                                                                                
    l_len = Lin_get_len();                                                                                                                        
    Lin_clear_index();                                                                                                                                  
    for (i = 0; i < l_len; i++) {                                                                                                                       
     83e:	e8 17       	cp	r30, r24
     840:	f9 07       	cpc	r31, r25
     842:	d9 f7       	brne	.-10     	; 0x83a <lin_get_response+0x20>
     844:	08 95       	ret

00000846 <kick_LIN_XCVR_WD>:

****************************************************************************/
static void kick_LIN_XCVR_WD(uint32_t unused)
{
    // Flip Parity
    Parity ^= 1;
     846:	90 91 1d 01 	lds	r25, 0x011D	; 0x80011d <Parity>
     84a:	81 e0       	ldi	r24, 0x01	; 1
     84c:	89 27       	eor	r24, r25
     84e:	80 93 1d 01 	sts	0x011D, r24	; 0x80011d <Parity>

    // Kick xcvr watchdog
    if (0 == Parity)
     852:	81 11       	cpse	r24, r1
     854:	0a c0       	rjmp	.+20     	; 0x86a <kick_LIN_XCVR_WD+0x24>
    {
        // PA3 lo
        PORTA &= ~(1<<PINA3);
     856:	13 98       	cbi	0x02, 3	; 2
        // Restart timer for kick pulse length
        Start_Timer(&LIN_XCVR_Kick_Timer, KICK_LENGTH_MS);
     858:	42 e0       	ldi	r20, 0x02	; 2
     85a:	50 e0       	ldi	r21, 0x00	; 0
     85c:	60 e0       	ldi	r22, 0x00	; 0
     85e:	70 e0       	ldi	r23, 0x00	; 0
     860:	8e e1       	ldi	r24, 0x1E	; 30
     862:	91 e0       	ldi	r25, 0x01	; 1
     864:	0e 94 00 09 	call	0x1200	; 0x1200 <Start_Timer>
     868:	08 95       	ret
    }
    else
    {
        // PA3 hi
        PORTA |= (1<<PINA3);
     86a:	13 9a       	sbi	0x02, 3	; 2
        // Restart timer for kick frequency
        Start_Timer(&LIN_XCVR_Kick_Timer, LIN_XCVR_WD_KICK_INTERVAL_MS);
     86c:	43 e2       	ldi	r20, 0x23	; 35
     86e:	50 e0       	ldi	r21, 0x00	; 0
     870:	60 e0       	ldi	r22, 0x00	; 0
     872:	70 e0       	ldi	r23, 0x00	; 0
     874:	8e e1       	ldi	r24, 0x1E	; 30
     876:	91 e0       	ldi	r25, 0x01	; 1
     878:	0e 94 00 09 	call	0x1200	; 0x1200 <Start_Timer>
     87c:	08 95       	ret

0000087e <Init_LIN_XCVR_WD_Kicker>:

****************************************************************************/
void Init_LIN_XCVR_WD_Kicker(void)
{
    // Set up PINA3 to kick WD
    PORTA |= (1<<PINA3);
     87e:	13 9a       	sbi	0x02, 3	; 2
    DDRA |= (1<<PINA3);
     880:	0b 9a       	sbi	0x01, 3	; 1

    // Register timer
    Register_Timer(&LIN_XCVR_Kick_Timer, kick_LIN_XCVR_WD);
     882:	63 e2       	ldi	r22, 0x23	; 35
     884:	74 e0       	ldi	r23, 0x04	; 4
     886:	8e e1       	ldi	r24, 0x1E	; 30
     888:	91 e0       	ldi	r25, 0x01	; 1
     88a:	0e 94 b3 08 	call	0x1166	; 0x1166 <Register_Timer>

    // Start timer
    Start_Timer(&LIN_XCVR_Kick_Timer, LIN_XCVR_WD_KICK_INTERVAL_MS);
     88e:	43 e2       	ldi	r20, 0x23	; 35
     890:	50 e0       	ldi	r21, 0x00	; 0
     892:	60 e0       	ldi	r22, 0x00	; 0
     894:	70 e0       	ldi	r23, 0x00	; 0
     896:	8e e1       	ldi	r24, 0x1E	; 30
     898:	91 e0       	ldi	r25, 0x01	; 1
     89a:	0e 94 00 09 	call	0x1200	; 0x1200 <Start_Timer>
     89e:	08 95       	ret

000008a0 <main>:
    // >>> The internal 8 MHz clock is already chosen.

    // CLKDIV8 comes initially programmed which will divide the 8MHz clock by 8.
    // We need to write to the CLKPR to make the chip run at 8 MHz instead of 1 MHz:
    // (p. 38)
    CLKPR = 1 << CLKPCE;
     8a0:	e1 e6       	ldi	r30, 0x61	; 97
     8a2:	f0 e0       	ldi	r31, 0x00	; 0
     8a4:	80 e8       	ldi	r24, 0x80	; 128
     8a6:	80 83       	st	Z, r24
    CLKPR = 0;
     8a8:	10 82       	st	Z, r1
    //      make sure no port pins drive resistive loads
    
    // *******************************
    // CALL INITIALIZERS
    // *******************************
    Initialize_Framework();
     8aa:	0e 94 ca 02 	call	0x594	; 0x594 <Initialize_Framework>
    
    // *******************************
    // ENABLE GLOBAL INTERRUPTS
    // *******************************
    asm("sei");
     8ae:	78 94       	sei

    // *******************************
    // RUN EVENTS SERVICE
    // *******************************
    // Run the events service
    Run_Events();
     8b0:	0e 94 87 02 	call	0x50e	; 0x50e <Run_Events>

    // *******************************
    // C NECESSARY RETURN
    // *******************************
    return 0;
}
     8b4:	80 e0       	ldi	r24, 0x00	; 0
     8b6:	90 e0       	ldi	r25, 0x00	; 0
     8b8:	08 95       	ret

000008ba <ID_schedule_handler>:

****************************************************************************/
static void ID_schedule_handler(uint32_t unused)
{
    // Transmit next header in schedule
    Master_LIN_Broadcast_ID(Curr_Schedule_ID);
     8ba:	80 91 0a 01 	lds	r24, 0x010A	; 0x80010a <Curr_Schedule_ID>
     8be:	0e 94 31 05 	call	0xa62	; 0xa62 <Master_LIN_Broadcast_ID>

****************************************************************************/
static void update_curr_schedule_id(void)
{
    // If we hit boundary condition, reset counter; otherwise increment
    if (SCHEDULE_END_ID == Curr_Schedule_ID)
     8c2:	80 91 0a 01 	lds	r24, 0x010A	; 0x80010a <Curr_Schedule_ID>
     8c6:	85 30       	cpi	r24, 0x05	; 5
     8c8:	21 f4       	brne	.+8      	; 0x8d2 <ID_schedule_handler+0x18>
    {
        Curr_Schedule_ID = SCHEDULE_START_ID;
     8ca:	82 e0       	ldi	r24, 0x02	; 2
     8cc:	80 93 0a 01 	sts	0x010A, r24	; 0x80010a <Curr_Schedule_ID>
     8d0:	03 c0       	rjmp	.+6      	; 0x8d8 <ID_schedule_handler+0x1e>
    }
    else
    {
        Curr_Schedule_ID++;
     8d2:	8f 5f       	subi	r24, 0xFF	; 255
     8d4:	80 93 0a 01 	sts	0x010A, r24	; 0x80010a <Curr_Schedule_ID>
    // Transmit next header in schedule
    Master_LIN_Broadcast_ID(Curr_Schedule_ID);
    // Update schedule id
    update_curr_schedule_id();
    // Restart timer
    Start_Timer(&Scheduling_Timer, SCHEDULE_INTERVAL_MS);
     8d8:	45 e0       	ldi	r20, 0x05	; 5
     8da:	50 e0       	ldi	r21, 0x00	; 0
     8dc:	60 e0       	ldi	r22, 0x00	; 0
     8de:	70 e0       	ldi	r23, 0x00	; 0
     8e0:	8b e2       	ldi	r24, 0x2B	; 43
     8e2:	91 e0       	ldi	r25, 0x01	; 1
     8e4:	0e 94 00 09 	call	0x1200	; 0x1200 <Start_Timer>
     8e8:	08 95       	ret

000008ea <Init_Master_Service>:
    Description
        Initializes the master node

****************************************************************************/
void Init_Master_Service(void)
{
     8ea:	cf 93       	push	r28
    // Set LIN ID, no need for ADC, we are the master node
    My_Node_ID = MASTER_NODE_ID;
     8ec:	10 92 3b 01 	sts	0x013B, r1	; 0x80013b <My_Node_ID>
     8f0:	c1 e0       	ldi	r28, 0x01	; 1
{
    // Loop through all slaves
    for (int slave_num = LOWEST_SLAVE_NUMBER; slave_num <= NUM_SLAVES; slave_num++)
    {
        // Write non-commands
        Write_Intensity_Data(Get_Pointer_To_Slave_Data(p_My_Command_Data, slave_num), INTENSITY_NON_COMMAND);
     8f2:	6c 2f       	mov	r22, r28
     8f4:	85 e3       	ldi	r24, 0x35	; 53
     8f6:	91 e0       	ldi	r25, 0x01	; 1
     8f8:	0e 94 2d 02 	call	0x45a	; 0x45a <Get_Pointer_To_Slave_Data>
     8fc:	6f ef       	ldi	r22, 0xFF	; 255
     8fe:	0e 94 26 02 	call	0x44c	; 0x44c <Write_Intensity_Data>
        Write_Position_Data(Get_Pointer_To_Slave_Data(p_My_Command_Data, slave_num), POSITION_NON_COMMAND);
     902:	6c 2f       	mov	r22, r28
     904:	85 e3       	ldi	r24, 0x35	; 53
     906:	91 e0       	ldi	r25, 0x01	; 1
     908:	0e 94 2d 02 	call	0x45a	; 0x45a <Get_Pointer_To_Slave_Data>
     90c:	6f ef       	ldi	r22, 0xFF	; 255
     90e:	7f ef       	ldi	r23, 0xFF	; 255
     910:	0e 94 29 02 	call	0x452	; 0x452 <Write_Position_Data>
     914:	cf 5f       	subi	r28, 0xFF	; 255

****************************************************************************/
static void clear_cmds(void)
{
    // Loop through all slaves
    for (int slave_num = LOWEST_SLAVE_NUMBER; slave_num <= NUM_SLAVES; slave_num++)
     916:	c3 30       	cpi	r28, 0x03	; 3
     918:	61 f7       	brne	.-40     	; 0x8f2 <Init_Master_Service+0x8>

    // Initialize the data arrays to proper things
    clear_cmds();

    // Initialize LIN
    MS_LIN_Initialize(&My_Node_ID, p_My_Command_Data, p_My_Status_Data);
     91a:	4f e2       	ldi	r20, 0x2F	; 47
     91c:	51 e0       	ldi	r21, 0x01	; 1
     91e:	65 e3       	ldi	r22, 0x35	; 53
     920:	71 e0       	ldi	r23, 0x01	; 1
     922:	8b e3       	ldi	r24, 0x3B	; 59
     924:	91 e0       	ldi	r25, 0x01	; 1
     926:	0e 94 0c 05 	call	0xa18	; 0xa18 <MS_LIN_Initialize>
	
	// Initialize SPI
	MS_SPI_Initialize(&My_Node_ID);
     92a:	8b e3       	ldi	r24, 0x3B	; 59
     92c:	91 e0       	ldi	r25, 0x01	; 1
     92e:	0e 94 89 06 	call	0xd12	; 0xd12 <MS_SPI_Initialize>
	
	// Register scheduling timer with ID_schedule_handler as 
    //      callback function
    Register_Timer(&Scheduling_Timer, ID_schedule_handler);
     932:	6d e5       	ldi	r22, 0x5D	; 93
     934:	74 e0       	ldi	r23, 0x04	; 4
     936:	8b e2       	ldi	r24, 0x2B	; 43
     938:	91 e0       	ldi	r25, 0x01	; 1
     93a:	0e 94 b3 08 	call	0x1166	; 0x1166 <Register_Timer>

    // Kick off scheduling timer
    Start_Timer(&Scheduling_Timer, SCHEDULE_INTERVAL_MS);
     93e:	45 e0       	ldi	r20, 0x05	; 5
     940:	50 e0       	ldi	r21, 0x00	; 0
     942:	60 e0       	ldi	r22, 0x00	; 0
     944:	70 e0       	ldi	r23, 0x00	; 0
     946:	8b e2       	ldi	r24, 0x2B	; 43
     948:	91 e0       	ldi	r25, 0x01	; 1
     94a:	0e 94 00 09 	call	0x1200	; 0x1200 <Start_Timer>

    // Register test timer & start
    Register_Timer(&Testing_Timer, Post_Event);
     94e:	6c e6       	ldi	r22, 0x6C	; 108
     950:	72 e0       	ldi	r23, 0x02	; 2
     952:	86 e0       	ldi	r24, 0x06	; 6
     954:	91 e0       	ldi	r25, 0x01	; 1
     956:	0e 94 b3 08 	call	0x1166	; 0x1166 <Register_Timer>
	
	MS_CAN_Initialize_1();
     95a:	0e 94 27 01 	call	0x24e	; 0x24e <MS_CAN_Initialize_1>
	
    Start_Timer(&Testing_Timer, 5000);
     95e:	48 e8       	ldi	r20, 0x88	; 136
     960:	53 e1       	ldi	r21, 0x13	; 19
     962:	60 e0       	ldi	r22, 0x00	; 0
     964:	70 e0       	ldi	r23, 0x00	; 0
     966:	86 e0       	ldi	r24, 0x06	; 6
     968:	91 e0       	ldi	r25, 0x01	; 1
     96a:	0e 94 00 09 	call	0x1200	; 0x1200 <Start_Timer>
    PORTB &= ~(1<<PINB2);
     96e:	2a 98       	cbi	0x05, 2	; 5
    DDRB |= (1<<PINB2);
     970:	22 9a       	sbi	0x04, 2	; 4
    //Set_PWM_Duty_Cycle(pwm_channel_a, 10);
}
     972:	cf 91       	pop	r28
     974:	08 95       	ret

00000976 <Run_Master_Service>:
        Processes events for the master node

****************************************************************************/
void Run_Master_Service(uint32_t event_mask)
{
    switch(event_mask)
     976:	60 34       	cpi	r22, 0x40	; 64
     978:	71 05       	cpc	r23, r1
     97a:	81 05       	cpc	r24, r1
     97c:	91 05       	cpc	r25, r1
     97e:	49 f5       	brne	.+82     	; 0x9d2 <Run_Master_Service+0x5c>
            // Do nothing.
            break;

        case EVT_TEST_TIMEOUT:
			
			if (Continue_Init)
     980:	80 91 02 01 	lds	r24, 0x0102	; 0x800102 <Continue_Init>
     984:	88 23       	and	r24, r24
     986:	69 f0       	breq	.+26     	; 0x9a2 <Run_Master_Service+0x2c>
			{
				MS_CAN_Initialize_2();
     988:	0e 94 70 01 	call	0x2e0	; 0x2e0 <MS_CAN_Initialize_2>
				Continue_Init = false;
     98c:	10 92 02 01 	sts	0x0102, r1	; 0x800102 <Continue_Init>
				Start_Timer(&Testing_Timer, 5000);
     990:	48 e8       	ldi	r20, 0x88	; 136
     992:	53 e1       	ldi	r21, 0x13	; 19
     994:	60 e0       	ldi	r22, 0x00	; 0
     996:	70 e0       	ldi	r23, 0x00	; 0
     998:	86 e0       	ldi	r24, 0x06	; 6
     99a:	91 e0       	ldi	r25, 0x01	; 1
     99c:	0e 94 00 09 	call	0x1200	; 0x1200 <Start_Timer>
     9a0:	0d c0       	rjmp	.+26     	; 0x9bc <Run_Master_Service+0x46>
				CAN_Read(MCP_TEC, RecvList);
				CAN_Read(MCP_REC, RecvList);
				CAN_Read(MCP_EFLG, RecvList);
				CAN_Read(MCP_CANCTRL, RecvList);
				*/
				CAN_Send_Message(3, TX_Data);
     9a2:	63 e0       	ldi	r22, 0x03	; 3
     9a4:	71 e0       	ldi	r23, 0x01	; 1
     9a6:	83 e0       	ldi	r24, 0x03	; 3
     9a8:	0e 94 bd 01 	call	0x37a	; 0x37a <CAN_Send_Message>
				//CAN_RTS(1);
				Start_Timer(&Testing_Timer, 250);
     9ac:	4a ef       	ldi	r20, 0xFA	; 250
     9ae:	50 e0       	ldi	r21, 0x00	; 0
     9b0:	60 e0       	ldi	r22, 0x00	; 0
     9b2:	70 e0       	ldi	r23, 0x00	; 0
     9b4:	86 e0       	ldi	r24, 0x06	; 6
     9b6:	91 e0       	ldi	r25, 0x01	; 1
     9b8:	0e 94 00 09 	call	0x1200	; 0x1200 <Start_Timer>
			}

            #if 1
             parity ^= 1;
     9bc:	90 91 2a 01 	lds	r25, 0x012A	; 0x80012a <parity>
     9c0:	81 e0       	ldi	r24, 0x01	; 1
     9c2:	89 27       	eor	r24, r25
     9c4:	80 93 2a 01 	sts	0x012A, r24	; 0x80012a <parity>
             if (parity)
     9c8:	88 23       	and	r24, r24
     9ca:	11 f0       	breq	.+4      	; 0x9d0 <Run_Master_Service+0x5a>
             {
                 PORTB |= (1<<PINB2);
     9cc:	2a 9a       	sbi	0x05, 2	; 5
     9ce:	08 95       	ret
             }
             else
             {
                 PORTB &= ~(1<<PINB2);
     9d0:	2a 98       	cbi	0x05, 2	; 5
     9d2:	08 95       	ret

000009d4 <Fill_Variable_List>:
        Fills in the variables the CAN Read command will set

****************************************************************************/

void Fill_Variable_List(uint8_t** Variable_List)
{
     9d4:	fc 01       	movw	r30, r24
	Variable_List[0] = &Byte_1;
     9d6:	89 e2       	ldi	r24, 0x29	; 41
     9d8:	91 e0       	ldi	r25, 0x01	; 1
     9da:	91 83       	std	Z+1, r25	; 0x01
     9dc:	80 83       	st	Z, r24
	Variable_List[1] = &Byte_2;
     9de:	88 e2       	ldi	r24, 0x28	; 40
     9e0:	91 e0       	ldi	r25, 0x01	; 1
     9e2:	93 83       	std	Z+3, r25	; 0x03
     9e4:	82 83       	std	Z+2, r24	; 0x02
	Variable_List[2] = &Byte_3;
     9e6:	87 e2       	ldi	r24, 0x27	; 39
     9e8:	91 e0       	ldi	r25, 0x01	; 1
     9ea:	95 83       	std	Z+5, r25	; 0x05
     9ec:	84 83       	std	Z+4, r24	; 0x04
	Variable_List[3] = &Byte_4;
     9ee:	86 e2       	ldi	r24, 0x26	; 38
     9f0:	91 e0       	ldi	r25, 0x01	; 1
     9f2:	97 83       	std	Z+7, r25	; 0x07
     9f4:	86 83       	std	Z+6, r24	; 0x06
	Variable_List[4] = &Byte_5;
     9f6:	85 e2       	ldi	r24, 0x25	; 37
     9f8:	91 e0       	ldi	r25, 0x01	; 1
     9fa:	91 87       	std	Z+9, r25	; 0x09
     9fc:	80 87       	std	Z+8, r24	; 0x08
	Variable_List[5] = &Byte_6;
     9fe:	84 e2       	ldi	r24, 0x24	; 36
     a00:	91 e0       	ldi	r25, 0x01	; 1
     a02:	93 87       	std	Z+11, r25	; 0x0b
     a04:	82 87       	std	Z+10, r24	; 0x0a
	Variable_List[6] = &Byte_7;
     a06:	83 e2       	ldi	r24, 0x23	; 35
     a08:	91 e0       	ldi	r25, 0x01	; 1
     a0a:	95 87       	std	Z+13, r25	; 0x0d
     a0c:	84 87       	std	Z+12, r24	; 0x0c
	Variable_List[7] = &Byte_8;		
     a0e:	82 e2       	ldi	r24, 0x22	; 34
     a10:	91 e0       	ldi	r25, 0x01	; 1
     a12:	97 87       	std	Z+15, r25	; 0x0f
     a14:	86 87       	std	Z+14, r24	; 0x0e
     a16:	08 95       	ret

00000a18 <MS_LIN_Initialize>:
        Initializes the LIN bus for the nodes based on ATtiny167

****************************************************************************/
void MS_LIN_Initialize(uint8_t * p_this_node_id, uint8_t * p_command_data, \
    uint8_t * p_status_data)
{
     a18:	ef 92       	push	r14
     a1a:	ff 92       	push	r15
     a1c:	0f 93       	push	r16
     a1e:	1f 93       	push	r17
     a20:	cf 93       	push	r28
     a22:	df 93       	push	r29
     a24:	7c 01       	movw	r14, r24
     a26:	8b 01       	movw	r16, r22
     a28:	ea 01       	movw	r28, r20
    // 0. Enable the LIN transceiver via PA4 which is connected on ENABLE
    PORTA |= (1<<PINA4);
     a2a:	14 9a       	sbi	0x02, 4	; 2
    DDRA |= (1<<PINA4);
     a2c:	0c 9a       	sbi	0x01, 4	; 1

    // 1. Call the LIN init function from the driver layer
    // * Arguments are found in lin_drv.h, config.h
    lin_init((OUR_LIN_SPEC), (CONF_LINBRR));
     a2e:	4c e0       	ldi	r20, 0x0C	; 12
     a30:	50 e0       	ldi	r21, 0x00	; 0
     a32:	60 e0       	ldi	r22, 0x00	; 0
     a34:	70 e0       	ldi	r23, 0x00	; 0
     a36:	80 e0       	ldi	r24, 0x00	; 0
     a38:	0e 94 5f 03 	call	0x6be	; 0x6be <lin_init>

    // 2. Save the pointer to this node's ID
    p_My_Node_ID = p_this_node_id;
     a3c:	f0 92 42 01 	sts	0x0142, r15	; 0x800142 <p_My_Node_ID+0x1>
     a40:	e0 92 41 01 	sts	0x0141, r14	; 0x800141 <p_My_Node_ID>

    // 3. Save the pointers to the data stores
    p_My_Command_Data = p_command_data;
     a44:	10 93 40 01 	sts	0x0140, r17	; 0x800140 <p_My_Command_Data+0x1>
     a48:	00 93 3f 01 	sts	0x013F, r16	; 0x80013f <p_My_Command_Data>
    p_My_Status_Data = p_status_data;
     a4c:	d0 93 3e 01 	sts	0x013E, r29	; 0x80013e <p_My_Status_Data+0x1>
     a50:	c0 93 3d 01 	sts	0x013D, r28	; 0x80013d <p_My_Status_Data>
}
     a54:	df 91       	pop	r29
     a56:	cf 91       	pop	r28
     a58:	1f 91       	pop	r17
     a5a:	0f 91       	pop	r16
     a5c:	ff 90       	pop	r15
     a5e:	ef 90       	pop	r14
     a60:	08 95       	ret

00000a62 <Master_LIN_Broadcast_ID>:

****************************************************************************/
void Master_LIN_Broadcast_ID(uint8_t slave_id)
{
    // Broadcast the LIN header
    lin_tx_header((OUR_LIN_SPEC), slave_id, 0);
     a62:	40 e0       	ldi	r20, 0x00	; 0
     a64:	68 2f       	mov	r22, r24
     a66:	80 e0       	ldi	r24, 0x00	; 0
     a68:	0e 94 89 03 	call	0x712	; 0x712 <lin_tx_header>
     a6c:	08 95       	ret

00000a6e <__vector_12>:
    Description
        Handles LIN specific interrupts

****************************************************************************/
ISR(LIN_TC_vect)
{
     a6e:	1f 92       	push	r1
     a70:	0f 92       	push	r0
     a72:	0f b6       	in	r0, 0x3f	; 63
     a74:	0f 92       	push	r0
     a76:	11 24       	eor	r1, r1
     a78:	2f 93       	push	r18
     a7a:	3f 93       	push	r19
     a7c:	4f 93       	push	r20
     a7e:	5f 93       	push	r21
     a80:	6f 93       	push	r22
     a82:	7f 93       	push	r23
     a84:	8f 93       	push	r24
     a86:	9f 93       	push	r25
     a88:	af 93       	push	r26
     a8a:	bf 93       	push	r27
     a8c:	ef 93       	push	r30
     a8e:	ff 93       	push	r31
    // Get interrupt cause
    switch (Lin_get_it())
     a90:	80 91 c9 00 	lds	r24, 0x00C9	; 0x8000c9 <__EEPROM_REGION_LENGTH__+0x7f00c9>
     a94:	8f 70       	andi	r24, 0x0F	; 15
     a96:	82 30       	cpi	r24, 0x02	; 2
     a98:	09 f4       	brne	.+2      	; 0xa9c <__vector_12+0x2e>
     a9a:	68 c0       	rjmp	.+208    	; 0xb6c <__vector_12+0xfe>
     a9c:	84 30       	cpi	r24, 0x04	; 4
     a9e:	21 f0       	breq	.+8      	; 0xaa8 <__vector_12+0x3a>
     aa0:	81 30       	cpi	r24, 0x01	; 1
     aa2:	09 f0       	breq	.+2      	; 0xaa6 <__vector_12+0x38>
     aa4:	66 c0       	rjmp	.+204    	; 0xb72 <__vector_12+0x104>
     aa6:	36 c0       	rjmp	.+108    	; 0xb14 <__vector_12+0xa6>

****************************************************************************/
static void lin_id_task(void)
{
    // Create copy of ID, make sure this gives only the lower 6 bits
    uint8_t temp_id = Lin_get_id();
     aa8:	90 91 d0 00 	lds	r25, 0x00D0	; 0x8000d0 <__EEPROM_REGION_LENGTH__+0x7f00d0>
     aac:	69 2f       	mov	r22, r25
     aae:	6f 73       	andi	r22, 0x3F	; 63

    // This ID matches my ID. It must be a command sent from the master.
    if (temp_id == *p_My_Node_ID)
     ab0:	e0 91 41 01 	lds	r30, 0x0141	; 0x800141 <p_My_Node_ID>
     ab4:	f0 91 42 01 	lds	r31, 0x0142	; 0x800142 <p_My_Node_ID+0x1>
     ab8:	80 81       	ld	r24, Z
     aba:	68 13       	cpse	r22, r24
     abc:	05 c0       	rjmp	.+10     	; 0xac8 <__vector_12+0x5a>
    {
        // Prepare LIN module for receive.
        lin_rx_response((OUR_LIN_SPEC), (LIN_PACKET_LEN));
     abe:	63 e0       	ldi	r22, 0x03	; 3
     ac0:	80 e0       	ldi	r24, 0x00	; 0
     ac2:	0e 94 bf 03 	call	0x77e	; 0x77e <lin_rx_response>
     ac6:	22 c0       	rjmp	.+68     	; 0xb0c <__vector_12+0x9e>
    }

    // This ID matches my ID. It must be a status request from the master.
    else if (temp_id == ((*p_My_Node_ID)|REQUEST_MASK))
     ac8:	28 2f       	mov	r18, r24
     aca:	21 60       	ori	r18, 0x01	; 1
     acc:	62 13       	cpse	r22, r18
     ace:	09 c0       	rjmp	.+18     	; 0xae2 <__vector_12+0x74>
    {
        // Prepare LIN module for transmit.
        // We must be a slave so My_Command_Data is LIN_PACKET_LEN bytes long only.
        lin_tx_response((OUR_LIN_SPEC), p_My_Status_Data, (LIN_PACKET_LEN));
     ad0:	60 91 3d 01 	lds	r22, 0x013D	; 0x80013d <p_My_Status_Data>
     ad4:	70 91 3e 01 	lds	r23, 0x013E	; 0x80013e <p_My_Status_Data+0x1>
     ad8:	43 e0       	ldi	r20, 0x03	; 3
     ada:	80 e0       	ldi	r24, 0x00	; 0
     adc:	0e 94 dc 03 	call	0x7b8	; 0x7b8 <lin_tx_response>
     ae0:	15 c0       	rjmp	.+42     	; 0xb0c <__vector_12+0x9e>

    // This ID doesn't match my ID.
    else
    {
        // If we're the master, we must have sent this ID
        if (MASTER_NODE_ID == *p_My_Node_ID)
     ae2:	81 11       	cpse	r24, r1
     ae4:	13 c0       	rjmp	.+38     	; 0xb0c <__vector_12+0x9e>
        {
            // Prepare LIN module for transmit if we sent a command.
            if (0 == (temp_id & REQUEST_MASK))
     ae6:	90 fd       	sbrc	r25, 0
     ae8:	0d c0       	rjmp	.+26     	; 0xb04 <__vector_12+0x96>
            {
                // Make sure we send the right command based on the slave ID.
                // The master has a My_Command_Data array that is LIN_PACKET_LEN*n bytes long.
                // Where n is the number of slaves in the system.
                lin_tx_response((OUR_LIN_SPEC), Get_Pointer_To_Slave_Data(p_My_Command_Data, GET_SLAVE_NUMBER(temp_id)), (LIN_PACKET_LEN));
     aea:	66 95       	lsr	r22
     aec:	80 91 3f 01 	lds	r24, 0x013F	; 0x80013f <p_My_Command_Data>
     af0:	90 91 40 01 	lds	r25, 0x0140	; 0x800140 <p_My_Command_Data+0x1>
     af4:	0e 94 2d 02 	call	0x45a	; 0x45a <Get_Pointer_To_Slave_Data>
     af8:	43 e0       	ldi	r20, 0x03	; 3
     afa:	bc 01       	movw	r22, r24
     afc:	80 e0       	ldi	r24, 0x00	; 0
     afe:	0e 94 dc 03 	call	0x7b8	; 0x7b8 <lin_tx_response>
     b02:	04 c0       	rjmp	.+8      	; 0xb0c <__vector_12+0x9e>
            }
            // Prepare LIN module for receive if we sent a request.
            else
            {
                lin_rx_response((OUR_LIN_SPEC), (LIN_PACKET_LEN));
     b04:	63 e0       	ldi	r22, 0x03	; 3
     b06:	80 e0       	ldi	r24, 0x00	; 0
     b08:	0e 94 bf 03 	call	0x77e	; 0x77e <lin_rx_response>
    switch (Lin_get_it())
    {
        // We received an ID
        case LIN_IDOK:
            lin_id_task();
            Lin_clear_idok_it();
     b0c:	84 e0       	ldi	r24, 0x04	; 4
     b0e:	80 93 c9 00 	sts	0x00C9, r24	; 0x8000c9 <__EEPROM_REGION_LENGTH__+0x7f00c9>
            break;
     b12:	2f c0       	rjmp	.+94     	; 0xb72 <__vector_12+0x104>
****************************************************************************/
static void lin_rx_task(void)
{
    // Copy the rx data to our appropriate data store
    // If we're the master, copy to our status array and post event
    if (MASTER_NODE_ID == *p_My_Node_ID)
     b14:	e0 91 41 01 	lds	r30, 0x0141	; 0x800141 <p_My_Node_ID>
     b18:	f0 91 42 01 	lds	r31, 0x0142	; 0x800142 <p_My_Node_ID+0x1>
     b1c:	80 81       	ld	r24, Z
     b1e:	81 11       	cpse	r24, r1
     b20:	15 c0       	rjmp	.+42     	; 0xb4c <__vector_12+0xde>
    {
        // TODO: Not entirely sure if the ID is saved during the receive...
        lin_get_response(Get_Pointer_To_Slave_Data(p_My_Status_Data, GET_SLAVE_NUMBER(Lin_get_id())));
     b22:	60 91 d0 00 	lds	r22, 0x00D0	; 0x8000d0 <__EEPROM_REGION_LENGTH__+0x7f00d0>
     b26:	6f 73       	andi	r22, 0x3F	; 63
     b28:	70 e0       	ldi	r23, 0x00	; 0
     b2a:	75 95       	asr	r23
     b2c:	67 95       	ror	r22
     b2e:	80 91 3d 01 	lds	r24, 0x013D	; 0x80013d <p_My_Status_Data>
     b32:	90 91 3e 01 	lds	r25, 0x013E	; 0x80013e <p_My_Status_Data+0x1>
     b36:	0e 94 2d 02 	call	0x45a	; 0x45a <Get_Pointer_To_Slave_Data>
     b3a:	0e 94 0d 04 	call	0x81a	; 0x81a <lin_get_response>

        // Post event
        Post_Event(EVT_MASTER_NEW_STS);
     b3e:	60 e1       	ldi	r22, 0x10	; 16
     b40:	70 e0       	ldi	r23, 0x00	; 0
     b42:	80 e0       	ldi	r24, 0x00	; 0
     b44:	90 e0       	ldi	r25, 0x00	; 0
     b46:	0e 94 6c 02 	call	0x4d8	; 0x4d8 <Post_Event>
     b4a:	0c c0       	rjmp	.+24     	; 0xb64 <__vector_12+0xf6>
    }
    // If we're a slave, copy to our command array and post event
    else
    {
        // Copy command
        lin_get_response(p_My_Command_Data);
     b4c:	80 91 3f 01 	lds	r24, 0x013F	; 0x80013f <p_My_Command_Data>
     b50:	90 91 40 01 	lds	r25, 0x0140	; 0x800140 <p_My_Command_Data+0x1>
     b54:	0e 94 0d 04 	call	0x81a	; 0x81a <lin_get_response>

        // Post event
        Post_Event(EVT_SLAVE_NEW_CMD);
     b58:	62 e0       	ldi	r22, 0x02	; 2
     b5a:	70 e0       	ldi	r23, 0x00	; 0
     b5c:	80 e0       	ldi	r24, 0x00	; 0
     b5e:	90 e0       	ldi	r25, 0x00	; 0
     b60:	0e 94 6c 02 	call	0x4d8	; 0x4d8 <Post_Event>
            break;

        // We received a data packet
        case LIN_RXOK:
            lin_rx_task();
            Lin_clear_rxok_it();
     b64:	81 e0       	ldi	r24, 0x01	; 1
     b66:	80 93 c9 00 	sts	0x00C9, r24	; 0x8000c9 <__EEPROM_REGION_LENGTH__+0x7f00c9>
            break;
     b6a:	03 c0       	rjmp	.+6      	; 0xb72 <__vector_12+0x104>

        // We transmitted a data packet
        case LIN_TXOK:
            lin_tx_task();
            Lin_clear_txok_it();
     b6c:	82 e0       	ldi	r24, 0x02	; 2
     b6e:	80 93 c9 00 	sts	0x00C9, r24	; 0x8000c9 <__EEPROM_REGION_LENGTH__+0x7f00c9>

        // The interrupt did not correspond to LIN
        default:
            break;
    } // End Switch
}
     b72:	ff 91       	pop	r31
     b74:	ef 91       	pop	r30
     b76:	bf 91       	pop	r27
     b78:	af 91       	pop	r26
     b7a:	9f 91       	pop	r25
     b7c:	8f 91       	pop	r24
     b7e:	7f 91       	pop	r23
     b80:	6f 91       	pop	r22
     b82:	5f 91       	pop	r21
     b84:	4f 91       	pop	r20
     b86:	3f 91       	pop	r19
     b88:	2f 91       	pop	r18
     b8a:	0f 90       	pop	r0
     b8c:	0f be       	out	0x3f, r0	; 63
     b8e:	0f 90       	pop	r0
     b90:	1f 90       	pop	r1
     b92:	18 95       	reti

00000b94 <__vector_13>:

ISR(LIN_ERR_vect)
{
     b94:	1f 92       	push	r1
     b96:	0f 92       	push	r0
     b98:	0f b6       	in	r0, 0x3f	; 63
     b9a:	0f 92       	push	r0
     b9c:	11 24       	eor	r1, r1
     b9e:	8f 93       	push	r24
    // Get Error Status, do task, and clear int
    Lin_get_error_status();
     ba0:	80 91 cb 00 	lds	r24, 0x00CB	; 0x8000cb <__EEPROM_REGION_LENGTH__+0x7f00cb>

****************************************************************************/
static void lin_err_task(void)
{
    // Increment error count
    My_LIN_Error_Count++;
     ba4:	80 91 3c 01 	lds	r24, 0x013C	; 0x80013c <My_LIN_Error_Count>
     ba8:	8f 5f       	subi	r24, 0xFF	; 255
     baa:	80 93 3c 01 	sts	0x013C, r24	; 0x80013c <My_LIN_Error_Count>
ISR(LIN_ERR_vect)
{
    // Get Error Status, do task, and clear int
    Lin_get_error_status();
    lin_err_task();
    Lin_clear_err_it();
     bae:	88 e0       	ldi	r24, 0x08	; 8
     bb0:	80 93 c9 00 	sts	0x00C9, r24	; 0x8000c9 <__EEPROM_REGION_LENGTH__+0x7f00c9>
     bb4:	8f 91       	pop	r24
     bb6:	0f 90       	pop	r0
     bb8:	0f be       	out	0x3f, r0	; 63
     bba:	0f 90       	pop	r0
     bbc:	1f 90       	pop	r1
     bbe:	18 95       	reti

00000bc0 <Init_PWM_Module>:
{
    // We need to ensure no interrupts occur when accessing 16-bit registers
    // (Just for safety, no ISR should be able to access these registers anyways.)
    // Even though the C code is one line for accessing 16-bit registers,
    //      in ASM it will be done in two cycles.
    ATOMIC_BLOCK(ATOMIC_RESTORESTATE)
     bc0:	2f b7       	in	r18, 0x3f	; 63
    return 1;
}

static __inline__ uint8_t __iCliRetVal(void)
{
    cli();
     bc2:	f8 94       	cli
    {
        // Clear Control Register C
        // "However, for ensuring compatibility with future devices,
        //      these bits must be set to zero when TCCR1A is written 
        //      when operating in a PWM mode."
        TCCR1C = 0;
     bc4:	10 92 82 00 	sts	0x0082, r1	; 0x800082 <__EEPROM_REGION_LENGTH__+0x7f0082>

        // Disable Timer1 interrupts
        TIMSK1 = 0;
     bc8:	10 92 6f 00 	sts	0x006F, r1	; 0x80006f <__EEPROM_REGION_LENGTH__+0x7f006f>

        // Set up pins for PWM output (p. 85)
        TCCR1D = ((1<<PWM_CH_A_PIN_ENABLE)|(1<<PWM_CH_B_PIN_ENABLE));
     bcc:	84 e2       	ldi	r24, 0x24	; 36
     bce:	80 93 83 00 	sts	0x0083, r24	; 0x800083 <__EEPROM_REGION_LENGTH__+0x7f0083>
        DDRB |= ((1<<PWM_CH_A_PIN)|(1<<PWM_CH_B_PIN));
     bd2:	84 b1       	in	r24, 0x04	; 4
     bd4:	88 61       	ori	r24, 0x18	; 24
     bd6:	84 b9       	out	0x04, r24	; 4

        // Set TOP values for A/B counters, executes in 1 asm lines
        ICR1 = TIMER_1_TOP;
     bd8:	87 e8       	ldi	r24, 0x87	; 135
     bda:	93 e1       	ldi	r25, 0x13	; 19
     bdc:	90 93 87 00 	sts	0x0087, r25	; 0x800087 <__EEPROM_REGION_LENGTH__+0x7f0087>
     be0:	80 93 86 00 	sts	0x0086, r24	; 0x800086 <__EEPROM_REGION_LENGTH__+0x7f0086>

        // Set output compare to value that sets lines low (0% duty cycle)
        OCR1A = OCR_DC_ZERO;
     be4:	8f ef       	ldi	r24, 0xFF	; 255
     be6:	9f ef       	ldi	r25, 0xFF	; 255
     be8:	90 93 89 00 	sts	0x0089, r25	; 0x800089 <__EEPROM_REGION_LENGTH__+0x7f0089>
     bec:	80 93 88 00 	sts	0x0088, r24	; 0x800088 <__EEPROM_REGION_LENGTH__+0x7f0088>
        OCR1B = OCR_DC_ZERO;
     bf0:	90 93 8b 00 	sts	0x008B, r25	; 0x80008b <__EEPROM_REGION_LENGTH__+0x7f008b>
     bf4:	80 93 8a 00 	sts	0x008A, r24	; 0x80008a <__EEPROM_REGION_LENGTH__+0x7f008a>
        // Set (COM1A/B[0:1]) for output pin high on match, low on TOP
        //      (Per Table 12-2 on p. 132)
        // Set WGM1[0:3]=1110b to define TOP in ICR1A register.
        //      Define TOP in ICR1 register, instead of OCR1A (explanation on p. 125)
        //      (Run at a fixed frequency with varying duty cycles)
        TCCR1A = ((1<<COM1A1)|(1<<COM1A0)|(1<<COM1B1)|(1<<COM1B0) \
     bf8:	82 ef       	ldi	r24, 0xF2	; 242
     bfa:	80 93 80 00 	sts	0x0080, r24	; 0x800080 <__EEPROM_REGION_LENGTH__+0x7f0080>
                    |(1<<WGM11)|(0<<WGM10));

        // Set WGM1[0:3]=1110b
        TCCR1B = ((1<<WGM13)|(1<<WGM12));
     bfe:	e1 e8       	ldi	r30, 0x81	; 129
     c00:	f0 e0       	ldi	r31, 0x00	; 0
     c02:	88 e1       	ldi	r24, 0x18	; 24
     c04:	80 83       	st	Z, r24

        // Start the clock by selecting a prescaler of f_clk/1 (CS10 set)
        // We want to aim for a frequency of 1 kHz
        // PWM freq is:
        //      f_pwm = f_clk/(prescale*(1+TOP))
        TCCR1B |= TIMER_1_PRESCALE;
     c06:	80 81       	ld	r24, Z
     c08:	82 60       	ori	r24, 0x02	; 2
     c0a:	80 83       	st	Z, r24
    (void)__s;
}

static __inline__ void __iRestore(const  uint8_t *__s)
{
    SREG = *__s;
     c0c:	2f bf       	out	0x3f, r18	; 63
    __asm__ volatile ("" ::: "memory");
     c0e:	08 95       	ret

00000c10 <Set_PWM_Duty_Cycle>:
void Set_PWM_Duty_Cycle(pwm_channel_t this_channel, uint8_t new_duty_cycle)
{
    // Set OCR1 for the requested channel
    // *Note: no need for atomic operation since OCR is double buffered

    switch(this_channel)
     c10:	88 23       	and	r24, r24
     c12:	19 f0       	breq	.+6      	; 0xc1a <Set_PWM_Duty_Cycle+0xa>
     c14:	81 30       	cpi	r24, 0x01	; 1
     c16:	49 f1       	breq	.+82     	; 0xc6a <Set_PWM_Duty_Cycle+0x5a>
     c18:	08 95       	ret

****************************************************************************/
static uint16_t calc_OCR_count(uint8_t duty_cycle)
{
    // Return the calculated value only if in (0,100) exclusive
    if (100 <= duty_cycle)
     c1a:	64 36       	cpi	r22, 0x64	; 100
     c1c:	e0 f4       	brcc	.+56     	; 0xc56 <Set_PWM_Duty_Cycle+0x46>
    {
        return OCR_DC_HUNDRED;
    }
    else if ((100 > duty_cycle) && (0 < duty_cycle))
     c1e:	8f ef       	ldi	r24, 0xFF	; 255
     c20:	86 0f       	add	r24, r22
     c22:	83 36       	cpi	r24, 0x63	; 99
     c24:	d8 f4       	brcc	.+54     	; 0xc5c <Set_PWM_Duty_Cycle+0x4c>
    {
        return ((TIMER_1_TOP+1)-((TIMER_1_TOP+1)/100)*duty_cycle);
     c26:	70 e0       	ldi	r23, 0x00	; 0
     c28:	cb 01       	movw	r24, r22
     c2a:	88 0f       	add	r24, r24
     c2c:	99 1f       	adc	r25, r25
     c2e:	88 0f       	add	r24, r24
     c30:	99 1f       	adc	r25, r25
     c32:	68 0f       	add	r22, r24
     c34:	79 1f       	adc	r23, r25
     c36:	cb 01       	movw	r24, r22
     c38:	88 0f       	add	r24, r24
     c3a:	99 1f       	adc	r25, r25
     c3c:	88 0f       	add	r24, r24
     c3e:	99 1f       	adc	r25, r25
     c40:	68 0f       	add	r22, r24
     c42:	79 1f       	adc	r23, r25
     c44:	66 0f       	add	r22, r22
     c46:	77 1f       	adc	r23, r23
     c48:	88 27       	eor	r24, r24
     c4a:	99 27       	eor	r25, r25
     c4c:	86 1b       	sub	r24, r22
     c4e:	97 0b       	sbc	r25, r23
     c50:	88 57       	subi	r24, 0x78	; 120
     c52:	9c 4e       	sbci	r25, 0xEC	; 236
     c54:	05 c0       	rjmp	.+10     	; 0xc60 <Set_PWM_Duty_Cycle+0x50>
static uint16_t calc_OCR_count(uint8_t duty_cycle)
{
    // Return the calculated value only if in (0,100) exclusive
    if (100 <= duty_cycle)
    {
        return OCR_DC_HUNDRED;
     c56:	80 e0       	ldi	r24, 0x00	; 0
     c58:	90 e0       	ldi	r25, 0x00	; 0
     c5a:	02 c0       	rjmp	.+4      	; 0xc60 <Set_PWM_Duty_Cycle+0x50>
    {
        return ((TIMER_1_TOP+1)-((TIMER_1_TOP+1)/100)*duty_cycle);
    }
    else
    {
        return OCR_DC_ZERO;
     c5c:	8f ef       	ldi	r24, 0xFF	; 255
     c5e:	9f ef       	ldi	r25, 0xFF	; 255
    // *Note: no need for atomic operation since OCR is double buffered

    switch(this_channel)
    {
        case pwm_channel_a:
            OCR1A = calc_OCR_count(new_duty_cycle);
     c60:	90 93 89 00 	sts	0x0089, r25	; 0x800089 <__EEPROM_REGION_LENGTH__+0x7f0089>
     c64:	80 93 88 00 	sts	0x0088, r24	; 0x800088 <__EEPROM_REGION_LENGTH__+0x7f0088>
            break;
     c68:	08 95       	ret

****************************************************************************/
static uint16_t calc_OCR_count(uint8_t duty_cycle)
{
    // Return the calculated value only if in (0,100) exclusive
    if (100 <= duty_cycle)
     c6a:	64 36       	cpi	r22, 0x64	; 100
     c6c:	e0 f4       	brcc	.+56     	; 0xca6 <Set_PWM_Duty_Cycle+0x96>
    {
        return OCR_DC_HUNDRED;
    }
    else if ((100 > duty_cycle) && (0 < duty_cycle))
     c6e:	8f ef       	ldi	r24, 0xFF	; 255
     c70:	86 0f       	add	r24, r22
     c72:	83 36       	cpi	r24, 0x63	; 99
     c74:	d8 f4       	brcc	.+54     	; 0xcac <Set_PWM_Duty_Cycle+0x9c>
    {
        return ((TIMER_1_TOP+1)-((TIMER_1_TOP+1)/100)*duty_cycle);
     c76:	70 e0       	ldi	r23, 0x00	; 0
     c78:	cb 01       	movw	r24, r22
     c7a:	88 0f       	add	r24, r24
     c7c:	99 1f       	adc	r25, r25
     c7e:	88 0f       	add	r24, r24
     c80:	99 1f       	adc	r25, r25
     c82:	68 0f       	add	r22, r24
     c84:	79 1f       	adc	r23, r25
     c86:	cb 01       	movw	r24, r22
     c88:	88 0f       	add	r24, r24
     c8a:	99 1f       	adc	r25, r25
     c8c:	88 0f       	add	r24, r24
     c8e:	99 1f       	adc	r25, r25
     c90:	68 0f       	add	r22, r24
     c92:	79 1f       	adc	r23, r25
     c94:	66 0f       	add	r22, r22
     c96:	77 1f       	adc	r23, r23
     c98:	88 27       	eor	r24, r24
     c9a:	99 27       	eor	r25, r25
     c9c:	86 1b       	sub	r24, r22
     c9e:	97 0b       	sbc	r25, r23
     ca0:	88 57       	subi	r24, 0x78	; 120
     ca2:	9c 4e       	sbci	r25, 0xEC	; 236
     ca4:	05 c0       	rjmp	.+10     	; 0xcb0 <Set_PWM_Duty_Cycle+0xa0>
static uint16_t calc_OCR_count(uint8_t duty_cycle)
{
    // Return the calculated value only if in (0,100) exclusive
    if (100 <= duty_cycle)
    {
        return OCR_DC_HUNDRED;
     ca6:	80 e0       	ldi	r24, 0x00	; 0
     ca8:	90 e0       	ldi	r25, 0x00	; 0
     caa:	02 c0       	rjmp	.+4      	; 0xcb0 <Set_PWM_Duty_Cycle+0xa0>
    {
        return ((TIMER_1_TOP+1)-((TIMER_1_TOP+1)/100)*duty_cycle);
    }
    else
    {
        return OCR_DC_ZERO;
     cac:	8f ef       	ldi	r24, 0xFF	; 255
     cae:	9f ef       	ldi	r25, 0xFF	; 255
        case pwm_channel_a:
            OCR1A = calc_OCR_count(new_duty_cycle);
            break;

        case pwm_channel_b:
            OCR1B = calc_OCR_count(new_duty_cycle);
     cb0:	90 93 8b 00 	sts	0x008B, r25	; 0x80008b <__EEPROM_REGION_LENGTH__+0x7f008b>
     cb4:	80 93 8a 00 	sts	0x008A, r24	; 0x80008a <__EEPROM_REGION_LENGTH__+0x7f008a>
     cb8:	08 95       	ret

00000cba <Reset_Command_Receive_Buffer>:
        Resets receive list pointers to NULL

****************************************************************************/

static void Reset_Command_Receive_Buffer(void)
{
     cba:	cf 93       	push	r28
     cbc:	df 93       	push	r29
     cbe:	eb ea       	ldi	r30, 0xAB	; 171
     cc0:	f1 e0       	ldi	r31, 0x01	; 1
     cc2:	ae e4       	ldi	r26, 0x4E	; 78
     cc4:	b1 e0       	ldi	r27, 0x01	; 1
     cc6:	26 ea       	ldi	r18, 0xA6	; 166
     cc8:	31 e0       	ldi	r19, 0x01	; 1
    for (int row = 0; row < COMMAND_BUFFER_SIZE; row++)
    {
        // Set all bytes of Command_Buffer to 0xff = UNASSIGNED
        for (int col = 0; col < MAX_COMMAND_TX_SIZE; col++)
        {
            Command_Buffer[row][col] = 0xFF;    // Set as unassigned
     cca:	8f ef       	ldi	r24, 0xFF	; 255
     ccc:	ef 01       	movw	r28, r30
     cce:	25 97       	sbiw	r28, 0x05	; 5
     cd0:	88 83       	st	Y, r24
     cd2:	21 96       	adiw	r28, 0x01	; 1
     cd4:	88 83       	st	Y, r24
     cd6:	21 96       	adiw	r28, 0x01	; 1
     cd8:	88 83       	st	Y, r24
     cda:	21 96       	adiw	r28, 0x01	; 1
     cdc:	88 83       	st	Y, r24
     cde:	21 96       	adiw	r28, 0x01	; 1
     ce0:	88 83       	st	Y, r24
     ce2:	80 83       	st	Z, r24
        }
        // Set all pointers of Receive List to NULL 
        for (int col = 0; col < MAX_COMMAND_RX_SIZE; col++)
        {
            Receive_List[row][col] = NULL;     // Set as unassigned
     ce4:	11 96       	adiw	r26, 0x01	; 1
     ce6:	1c 92       	st	X, r1
     ce8:	1e 92       	st	-X, r1
     cea:	13 96       	adiw	r26, 0x03	; 3
     cec:	1c 92       	st	X, r1
     cee:	1e 92       	st	-X, r1
     cf0:	12 97       	sbiw	r26, 0x02	; 2
     cf2:	15 96       	adiw	r26, 0x05	; 5
     cf4:	1c 92       	st	X, r1
     cf6:	1e 92       	st	-X, r1
     cf8:	14 97       	sbiw	r26, 0x04	; 4
     cfa:	17 96       	adiw	r26, 0x07	; 7
     cfc:	1c 92       	st	X, r1
     cfe:	1e 92       	st	-X, r1
     d00:	16 97       	sbiw	r26, 0x06	; 6
     d02:	36 96       	adiw	r30, 0x06	; 6
     d04:	18 96       	adiw	r26, 0x08	; 8

****************************************************************************/

static void Reset_Command_Receive_Buffer(void)
{
    for (int row = 0; row < COMMAND_BUFFER_SIZE; row++)
     d06:	a2 17       	cp	r26, r18
     d08:	b3 07       	cpc	r27, r19
     d0a:	01 f7       	brne	.-64     	; 0xccc <Reset_Command_Receive_Buffer+0x12>
        for (int col = 0; col < MAX_COMMAND_RX_SIZE; col++)
        {
            Receive_List[row][col] = NULL;     // Set as unassigned
        }
    }
}
     d0c:	df 91       	pop	r29
     d0e:	cf 91       	pop	r28
     d10:	08 95       	ret

00000d12 <MS_SPI_Initialize>:

****************************************************************************/
void MS_SPI_Initialize(uint8_t * p_this_node_id)
{
    // Identify node type
    Master_Slave_Identifier = *p_this_node_id;
     d12:	fc 01       	movw	r30, r24
     d14:	80 81       	ld	r24, Z
     d16:	80 93 e8 01 	sts	0x01E8, r24	; 0x8001e8 <Master_Slave_Identifier>
    
    if (SPI_MASTER == Master_Slave_Identifier)
     d1a:	81 11       	cpse	r24, r1
     d1c:	0f c0       	rjmp	.+30     	; 0xd3c <MS_SPI_Initialize+0x2a>
    {
        // SPI Data Direction Register (DDR_SPI) = DDRA
        // Set MOSI, SS and SCK output, all others input
        DDR_SPI |= (1<<MOSI)|(1<<SCK)|(1<<SS);
     d1e:	81 b1       	in	r24, 0x01	; 1
     d20:	80 67       	ori	r24, 0x70	; 112
     d22:	81 b9       	out	0x01, r24	; 1
		//DDR_SPI &= ~(1<<SS);

        // Enable interrupt on transmission complete, enable SPI and set as master,
        // set clock rate io_clk/4, MSB transmitted first, Sample on rising edge 
        SPCR = (1<<SPIE)|(1<<SPE)|(1<<MSTR);
     d24:	80 ed       	ldi	r24, 0xD0	; 208
     d26:	8c bd       	out	0x2c, r24	; 44

        // Raise SS from master at Init
        PORTA |= (1<<SS);
     d28:	16 9a       	sbi	0x02, 6	; 2

        // Reset indices
        Buffer_Index = 0;
     d2a:	10 92 4d 01 	sts	0x014D, r1	; 0x80014d <Buffer_Index>
        TX_Index = 0;
     d2e:	10 92 4a 01 	sts	0x014A, r1	; 0x80014a <TX_Index>
		RX_Index = 0;
     d32:	10 92 4b 01 	sts	0x014B, r1	; 0x80014b <RX_Index>

        Reset_Command_Receive_Buffer();
     d36:	0e 94 5d 06 	call	0xcba	; 0xcba <Reset_Command_Receive_Buffer>
     d3a:	08 95       	ret
    }
    else
    {
        // SPI Data Direction Register (DDR_SPI) = DDRA
        // Set MISO output, all others input
        DDR_SPI |= (1<<MISO);
     d3c:	0a 9a       	sbi	0x01, 2	; 1

        // Enable interrupt on transmission complete, enable SPI and set as slave,
        // set clock rate io_clk/4, MSB transmitted first, Sample on rising edge
        // Slave requires interrupt response as we do not when transmission might
        // occur.
        SPCR = (1<<SPIE)|(1<<SPE);
     d3e:	80 ec       	ldi	r24, 0xC0	; 192
     d40:	8c bd       	out	0x2c, r24	; 44

        // Reset indices
        Buffer_Index = 0;
     d42:	10 92 4d 01 	sts	0x014D, r1	; 0x80014d <Buffer_Index>
        TX_Index = 0;
     d46:	10 92 4a 01 	sts	0x014A, r1	; 0x80014a <TX_Index>
        RX_Index = 0;
     d4a:	10 92 4b 01 	sts	0x014B, r1	; 0x80014b <RX_Index>

        Reset_Command_Receive_Buffer();
     d4e:	0e 94 5d 06 	call	0xcba	; 0xcba <Reset_Command_Receive_Buffer>
     d52:	08 95       	ret

00000d54 <SPI_Start_Command>:

****************************************************************************/

void SPI_Start_Command (void)
{
	Expected_TX_Length = Command_Buffer[Buffer_Index][TX_LENGTH_BYTE];
     d54:	80 91 4d 01 	lds	r24, 0x014D	; 0x80014d <Buffer_Index>
     d58:	90 e0       	ldi	r25, 0x00	; 0
     d5a:	fc 01       	movw	r30, r24
     d5c:	ee 0f       	add	r30, r30
     d5e:	ff 1f       	adc	r31, r31
     d60:	df 01       	movw	r26, r30
     d62:	a8 0f       	add	r26, r24
     d64:	b9 1f       	adc	r27, r25
     d66:	aa 0f       	add	r26, r26
     d68:	bb 1f       	adc	r27, r27
     d6a:	aa 55       	subi	r26, 0x5A	; 90
     d6c:	be 4f       	sbci	r27, 0xFE	; 254
     d6e:	2c 91       	ld	r18, X
     d70:	20 93 49 01 	sts	0x0149, r18	; 0x800149 <Expected_TX_Length>
	Expected_RX_Length = Command_Buffer[Buffer_Index][RX_LENGTH_BYTE];
     d74:	fd 01       	movw	r30, r26
     d76:	81 81       	ldd	r24, Z+1	; 0x01
     d78:	80 93 48 01 	sts	0x0148, r24	; 0x800148 <Expected_RX_Length>
	
	// Set RX data index
	RX_Index = 0;
     d7c:	10 92 4b 01 	sts	0x014B, r1	; 0x80014b <RX_Index>
	
    // Set TX data index
    TX_Index = 0;
     d80:	10 92 4a 01 	sts	0x014A, r1	; 0x80014a <TX_Index>
	
	// State in TX
	In_Tx = true;
     d84:	81 e0       	ldi	r24, 0x01	; 1
     d86:	80 93 47 01 	sts	0x0147, r24	; 0x800147 <In_Tx>

    // Set slave select low to indicate start of transmission
    PORTA &= ~(1<<SS);
     d8a:	16 98       	cbi	0x02, 6	; 2
     d8c:	08 95       	ret

00000d8e <SPI_End_Command>:
****************************************************************************/

void SPI_End_Command (void)
{
    // Set slave select high to indicate end of transmission
    PORTA |= (1<<SS);
     d8e:	16 9a       	sbi	0x02, 6	; 2
     d90:	08 95       	ret

00000d92 <SPI_Transmit>:
****************************************************************************/

void SPI_Transmit (void)
{
    // Send byte out
    SPDR = Command_Buffer[Buffer_Index][TX_Index + LENGTH_BYTES];
     d92:	20 91 4d 01 	lds	r18, 0x014D	; 0x80014d <Buffer_Index>
     d96:	30 91 4a 01 	lds	r19, 0x014A	; 0x80014a <TX_Index>
     d9a:	82 2f       	mov	r24, r18
     d9c:	90 e0       	ldi	r25, 0x00	; 0
     d9e:	82 0f       	add	r24, r18
     da0:	91 1d       	adc	r25, r1
     da2:	82 0f       	add	r24, r18
     da4:	91 1d       	adc	r25, r1
     da6:	fc 01       	movw	r30, r24
     da8:	ee 0f       	add	r30, r30
     daa:	ff 1f       	adc	r31, r31
     dac:	ea 55       	subi	r30, 0x5A	; 90
     dae:	fe 4f       	sbci	r31, 0xFE	; 254
     db0:	e3 0f       	add	r30, r19
     db2:	f1 1d       	adc	r31, r1
     db4:	82 81       	ldd	r24, Z+2	; 0x02
     db6:	8e bd       	out	0x2e, r24	; 46
	
	if (In_Tx)
     db8:	80 91 47 01 	lds	r24, 0x0147	; 0x800147 <In_Tx>
     dbc:	88 23       	and	r24, r24
     dbe:	31 f0       	breq	.+12     	; 0xdcc <SPI_Transmit+0x3a>
	{
		// Increment Transmit Index
		TX_Index++;		
     dc0:	80 91 4a 01 	lds	r24, 0x014A	; 0x80014a <TX_Index>
     dc4:	8f 5f       	subi	r24, 0xFF	; 255
     dc6:	80 93 4a 01 	sts	0x014A, r24	; 0x80014a <TX_Index>
     dca:	08 95       	ret
		/*
		// Increment Receive Index
		RX_Index++;
		*/
		// Increment Transmit Index
		TX_Index++;
     dcc:	80 91 4a 01 	lds	r24, 0x014A	; 0x80014a <TX_Index>
     dd0:	8f 5f       	subi	r24, 0xFF	; 255
     dd2:	80 93 4a 01 	sts	0x014A, r24	; 0x80014a <TX_Index>
     dd6:	08 95       	ret

00000dd8 <Write_SPI>:
    Description
        Fills in current command into SPI command buffer
****************************************************************************/

void Write_SPI(uint8_t TX_Length, uint8_t RX_Length, uint8_t * Data2Write, uint8_t ** Data2Receive)
{
     dd8:	af 92       	push	r10
     dda:	bf 92       	push	r11
     ddc:	cf 92       	push	r12
     dde:	df 92       	push	r13
     de0:	ef 92       	push	r14
     de2:	ff 92       	push	r15
     de4:	0f 93       	push	r16
     de6:	1f 93       	push	r17
     de8:	cf 93       	push	r28
     dea:	df 93       	push	r29
     dec:	d8 2e       	mov	r13, r24
     dee:	c6 2e       	mov	r12, r22
     df0:	7a 01       	movw	r14, r20
     df2:	b2 2e       	mov	r11, r18
     df4:	a3 2e       	mov	r10, r19
	counter_value = query_counter();
     df6:	0e 94 f8 02 	call	0x5f0	; 0x5f0 <query_counter>
     dfa:	60 93 43 01 	sts	0x0143, r22	; 0x800143 <counter_value>
     dfe:	70 93 44 01 	sts	0x0144, r23	; 0x800144 <counter_value+0x1>
     e02:	80 93 45 01 	sts	0x0145, r24	; 0x800145 <counter_value+0x2>
     e06:	90 93 46 01 	sts	0x0146, r25	; 0x800146 <counter_value+0x3>
	
    // Over all columns of next available command row
    for (int i = 0; i < (LENGTH_BYTES + TX_Length); i++)
     e0a:	0d 2d       	mov	r16, r13
     e0c:	10 e0       	ldi	r17, 0x00	; 0
     e0e:	0e 5f       	subi	r16, 0xFE	; 254
     e10:	1f 4f       	sbci	r17, 0xFF	; 255
    {
        // Fill in expected TX length
        if (i == TX_LENGTH_BYTE)
        {
            Command_Buffer[Next_Available_Row][TX_LENGTH_BYTE] = TX_Length;
     e12:	80 91 4c 01 	lds	r24, 0x014C	; 0x80014c <Next_Available_Row>
     e16:	90 e0       	ldi	r25, 0x00	; 0
     e18:	d7 01       	movw	r26, r14
     e1a:	12 97       	sbiw	r26, 0x02	; 2
     e1c:	7c 01       	movw	r14, r24
     e1e:	ee 0c       	add	r14, r14
     e20:	ff 1c       	adc	r15, r15
     e22:	e8 0e       	add	r14, r24
     e24:	f9 1e       	adc	r15, r25
     e26:	ee 0c       	add	r14, r14
     e28:	ff 1c       	adc	r15, r15
     e2a:	e0 e0       	ldi	r30, 0x00	; 0
     e2c:	f0 e0       	ldi	r31, 0x00	; 0
        }
        // Fill in expected RX Length
        else if (i == RX_LENGTH_BYTE)
        {
            Command_Buffer[Next_Available_Row][RX_LENGTH_BYTE] = RX_Length;
     e2e:	b7 01       	movw	r22, r14
     e30:	6a 55       	subi	r22, 0x5A	; 90
     e32:	7e 4f       	sbci	r23, 0xFE	; 254
     e34:	cb 01       	movw	r24, r22
     e36:	01 96       	adiw	r24, 0x01	; 1
	
    // Over all columns of next available command row
    for (int i = 0; i < (LENGTH_BYTES + TX_Length); i++)
    {
        // Fill in expected TX length
        if (i == TX_LENGTH_BYTE)
     e38:	30 97       	sbiw	r30, 0x00	; 0
     e3a:	19 f4       	brne	.+6      	; 0xe42 <Write_SPI+0x6a>
        {
            Command_Buffer[Next_Available_Row][TX_LENGTH_BYTE] = TX_Length;
     e3c:	eb 01       	movw	r28, r22
     e3e:	d8 82       	st	Y, r13
     e40:	0e c0       	rjmp	.+28     	; 0xe5e <Write_SPI+0x86>
        }
        // Fill in expected RX Length
        else if (i == RX_LENGTH_BYTE)
     e42:	e1 30       	cpi	r30, 0x01	; 1
     e44:	f1 05       	cpc	r31, r1
     e46:	19 f4       	brne	.+6      	; 0xe4e <Write_SPI+0x76>
        {
            Command_Buffer[Next_Available_Row][RX_LENGTH_BYTE] = RX_Length;
     e48:	ec 01       	movw	r28, r24
     e4a:	c8 82       	st	Y, r12
     e4c:	08 c0       	rjmp	.+16     	; 0xe5e <Write_SPI+0x86>
        }
        // Fill in remaining data to TX
        else
        {
            Command_Buffer[Next_Available_Row][i] = *(Data2Write + (i - LENGTH_BYTES));
     e4e:	2c 91       	ld	r18, X
     e50:	af 01       	movw	r20, r30
     e52:	4e 0d       	add	r20, r14
     e54:	5f 1d       	adc	r21, r15
     e56:	4a 55       	subi	r20, 0x5A	; 90
     e58:	5e 4f       	sbci	r21, 0xFE	; 254
     e5a:	ea 01       	movw	r28, r20
     e5c:	28 83       	st	Y, r18
void Write_SPI(uint8_t TX_Length, uint8_t RX_Length, uint8_t * Data2Write, uint8_t ** Data2Receive)
{
	counter_value = query_counter();
	
    // Over all columns of next available command row
    for (int i = 0; i < (LENGTH_BYTES + TX_Length); i++)
     e5e:	31 96       	adiw	r30, 0x01	; 1
     e60:	11 96       	adiw	r26, 0x01	; 1
     e62:	e0 17       	cp	r30, r16
     e64:	f1 07       	cpc	r31, r17
     e66:	44 f3       	brlt	.-48     	; 0xe38 <Write_SPI+0x60>
     e68:	36 c0       	rjmp	.+108    	; 0xed6 <Write_SPI+0xfe>
    if (RX_Length > 0)
    {
        for (int i = 0; i < RX_Length; i++)
        {
            // Add pointers to variables that shall be updated with receive data
            Receive_List[Next_Available_Row][i] = *(Data2Receive + i);
     e6a:	8d 91       	ld	r24, X+
     e6c:	9d 91       	ld	r25, X+
     e6e:	81 93       	st	Z+, r24
     e70:	91 93       	st	Z+, r25
        }   
    }
    // Data is expected to be received
    if (RX_Length > 0)
    {
        for (int i = 0; i < RX_Length; i++)
     e72:	e2 17       	cp	r30, r18
     e74:	f3 07       	cpc	r31, r19
     e76:	c9 f7       	brne	.-14     	; 0xe6a <Write_SPI+0x92>
            // Add pointers to variables that shall be updated with receive data
            Receive_List[Next_Available_Row][i] = *(Data2Receive + i);
        }
    }
    // If reached Command Buffer end
    if (Next_Available_Row == COMMAND_BUFFER_SIZE - 1)
     e78:	80 91 4c 01 	lds	r24, 0x014C	; 0x80014c <Next_Available_Row>
     e7c:	8a 30       	cpi	r24, 0x0A	; 10
     e7e:	19 f4       	brne	.+6      	; 0xe86 <Write_SPI+0xae>
    {
        Next_Available_Row = 0;
     e80:	10 92 4c 01 	sts	0x014C, r1	; 0x80014c <Next_Available_Row>
     e84:	03 c0       	rjmp	.+6      	; 0xe8c <Write_SPI+0xb4>
    }
    else
    {
        Next_Available_Row++;
     e86:	8f 5f       	subi	r24, 0xFF	; 255
     e88:	80 93 4c 01 	sts	0x014C, r24	; 0x80014c <Next_Available_Row>
    }
    // If SPI is currently idling, start transmission
    if (Query_SPI_State() == NORMAL_STATE)
     e8c:	0e 94 8a 08 	call	0x1114	; 0x1114 <Query_SPI_State>
     e90:	81 11       	cpse	r24, r1
     e92:	24 c0       	rjmp	.+72     	; 0xedc <Write_SPI+0x104>
    {
        Post_Event(EVT_SPI_START);
     e94:	60 e8       	ldi	r22, 0x80	; 128
     e96:	70 e0       	ldi	r23, 0x00	; 0
     e98:	80 e0       	ldi	r24, 0x00	; 0
     e9a:	90 e0       	ldi	r25, 0x00	; 0
     e9c:	0e 94 6c 02 	call	0x4d8	; 0x4d8 <Post_Event>
     ea0:	1d c0       	rjmp	.+58     	; 0xedc <Write_SPI+0x104>
     ea2:	ab 2d       	mov	r26, r11
     ea4:	ba 2d       	mov	r27, r10
     ea6:	80 91 4c 01 	lds	r24, 0x014C	; 0x80014c <Next_Available_Row>
     eaa:	90 e0       	ldi	r25, 0x00	; 0
     eac:	fc 01       	movw	r30, r24
     eae:	ee 0f       	add	r30, r30
     eb0:	ff 1f       	adc	r31, r31
     eb2:	ee 0f       	add	r30, r30
     eb4:	ff 1f       	adc	r31, r31
     eb6:	ee 0f       	add	r30, r30
     eb8:	ff 1f       	adc	r31, r31
     eba:	e2 5b       	subi	r30, 0xB2	; 178
     ebc:	fe 4f       	sbci	r31, 0xFE	; 254
     ebe:	9c 01       	movw	r18, r24
     ec0:	22 0f       	add	r18, r18
     ec2:	33 1f       	adc	r19, r19
     ec4:	22 0f       	add	r18, r18
     ec6:	33 1f       	adc	r19, r19
     ec8:	2c 0d       	add	r18, r12
     eca:	31 1d       	adc	r19, r1
     ecc:	22 0f       	add	r18, r18
     ece:	33 1f       	adc	r19, r19
     ed0:	22 5b       	subi	r18, 0xB2	; 178
     ed2:	3e 4f       	sbci	r19, 0xFE	; 254
     ed4:	ca cf       	rjmp	.-108    	; 0xe6a <Write_SPI+0x92>
        {
            Command_Buffer[Next_Available_Row][i] = *(Data2Write + (i - LENGTH_BYTES));
        }   
    }
    // Data is expected to be received
    if (RX_Length > 0)
     ed6:	c1 10       	cpse	r12, r1
     ed8:	e4 cf       	rjmp	.-56     	; 0xea2 <Write_SPI+0xca>
     eda:	ce cf       	rjmp	.-100    	; 0xe78 <Write_SPI+0xa0>
    // If SPI is currently idling, start transmission
    if (Query_SPI_State() == NORMAL_STATE)
    {
        Post_Event(EVT_SPI_START);
    }
}
     edc:	df 91       	pop	r29
     ede:	cf 91       	pop	r28
     ee0:	1f 91       	pop	r17
     ee2:	0f 91       	pop	r16
     ee4:	ff 90       	pop	r15
     ee6:	ef 90       	pop	r14
     ee8:	df 90       	pop	r13
     eea:	cf 90       	pop	r12
     eec:	bf 90       	pop	r11
     eee:	af 90       	pop	r10
     ef0:	08 95       	ret

00000ef2 <__vector_14>:
        Handles SPI transmission completed interrupts

****************************************************************************/

ISR(SPI_STC_vect)
{
     ef2:	1f 92       	push	r1
     ef4:	0f 92       	push	r0
     ef6:	0f b6       	in	r0, 0x3f	; 63
     ef8:	0f 92       	push	r0
     efa:	11 24       	eor	r1, r1
     efc:	2f 93       	push	r18
     efe:	3f 93       	push	r19
     f00:	4f 93       	push	r20
     f02:	5f 93       	push	r21
     f04:	6f 93       	push	r22
     f06:	7f 93       	push	r23
     f08:	8f 93       	push	r24
     f0a:	9f 93       	push	r25
     f0c:	af 93       	push	r26
     f0e:	bf 93       	push	r27
     f10:	ef 93       	push	r30
     f12:	ff 93       	push	r31
    if (Master_Slave_Identifier == SPI_MASTER)
     f14:	80 91 e8 01 	lds	r24, 0x01E8	; 0x8001e8 <Master_Slave_Identifier>
     f18:	81 11       	cpse	r24, r1
     f1a:	9d c0       	rjmp	.+314    	; 0x1056 <__vector_14+0x164>
    {
        // Clear the SPI Interrupt Flag (is done by reading the SPSR Register)
        uint8_t SPSR_Status = SPSR;
     f1c:	8d b5       	in	r24, 0x2d	; 45
		
		// Once a transmit has been completed
		if (In_Tx)
     f1e:	80 91 47 01 	lds	r24, 0x0147	; 0x800147 <In_Tx>
     f22:	88 23       	and	r24, r24
     f24:	e1 f0       	breq	.+56     	; 0xf5e <__vector_14+0x6c>
		{
            // If more bytes left to transmit post transmission event
			if (TX_Index <= Expected_TX_Length)
     f26:	90 91 4a 01 	lds	r25, 0x014A	; 0x80014a <TX_Index>
     f2a:	80 91 49 01 	lds	r24, 0x0149	; 0x800149 <Expected_TX_Length>
     f2e:	89 17       	cp	r24, r25
     f30:	a0 f0       	brcs	.+40     	; 0xf5a <__vector_14+0x68>
			{
				if ((TX_Index == Expected_TX_Length) && Expected_RX_Length == 0)
     f32:	98 13       	cpse	r25, r24
     f34:	07 c0       	rjmp	.+14     	; 0xf44 <__vector_14+0x52>
     f36:	80 91 48 01 	lds	r24, 0x0148	; 0x800148 <Expected_RX_Length>
     f3a:	81 11       	cpse	r24, r1
     f3c:	03 c0       	rjmp	.+6      	; 0xf44 <__vector_14+0x52>
				{
					In_Tx = false;									
     f3e:	10 92 47 01 	sts	0x0147, r1	; 0x800147 <In_Tx>
     f42:	0d c0       	rjmp	.+26     	; 0xf5e <__vector_14+0x6c>
				}
				else
				{
					Post_Event(EVT_SPI_SEND_BYTE);
     f44:	60 e0       	ldi	r22, 0x00	; 0
     f46:	71 e0       	ldi	r23, 0x01	; 1
     f48:	80 e0       	ldi	r24, 0x00	; 0
     f4a:	90 e0       	ldi	r25, 0x00	; 0
     f4c:	0e 94 6c 02 	call	0x4d8	; 0x4d8 <Post_Event>
			{
				In_Tx = false;
			}
		}
		
		if (!In_Tx)
     f50:	80 91 47 01 	lds	r24, 0x0147	; 0x800147 <In_Tx>
     f54:	81 11       	cpse	r24, r1
     f56:	7f c0       	rjmp	.+254    	; 0x1056 <__vector_14+0x164>
     f58:	02 c0       	rjmp	.+4      	; 0xf5e <__vector_14+0x6c>
					Post_Event(EVT_SPI_SEND_BYTE);
				}
			}
			else
			{
				In_Tx = false;
     f5a:	10 92 47 01 	sts	0x0147, r1	; 0x800147 <In_Tx>
			}
		}
		
		if (!In_Tx)
		{
			if (Expected_RX_Length > 0)
     f5e:	90 91 48 01 	lds	r25, 0x0148	; 0x800148 <Expected_RX_Length>
     f62:	99 23       	and	r25, r25
     f64:	01 f1       	breq	.+64     	; 0xfa6 <__vector_14+0xb4>
			{
				*(Receive_List[Buffer_Index][RX_Index]) = SPDR;
     f66:	80 91 4b 01 	lds	r24, 0x014B	; 0x80014b <RX_Index>
     f6a:	e0 91 4d 01 	lds	r30, 0x014D	; 0x80014d <Buffer_Index>
     f6e:	f0 e0       	ldi	r31, 0x00	; 0
     f70:	ee 0f       	add	r30, r30
     f72:	ff 1f       	adc	r31, r31
     f74:	ee 0f       	add	r30, r30
     f76:	ff 1f       	adc	r31, r31
     f78:	e8 0f       	add	r30, r24
     f7a:	f1 1d       	adc	r31, r1
     f7c:	ee 0f       	add	r30, r30
     f7e:	ff 1f       	adc	r31, r31
     f80:	e2 5b       	subi	r30, 0xB2	; 178
     f82:	fe 4f       	sbci	r31, 0xFE	; 254
     f84:	01 90       	ld	r0, Z+
     f86:	f0 81       	ld	r31, Z
     f88:	e0 2d       	mov	r30, r0
     f8a:	2e b5       	in	r18, 0x2e	; 46
     f8c:	20 83       	st	Z, r18
				RX_Index++;				
     f8e:	8f 5f       	subi	r24, 0xFF	; 255
     f90:	80 93 4b 01 	sts	0x014B, r24	; 0x80014b <RX_Index>
			}
			if (RX_Index < Expected_RX_Length)
     f94:	89 17       	cp	r24, r25
     f96:	38 f4       	brcc	.+14     	; 0xfa6 <__vector_14+0xb4>
			{
				Post_Event(EVT_SPI_RECV_BYTE);
     f98:	60 e0       	ldi	r22, 0x00	; 0
     f9a:	72 e0       	ldi	r23, 0x02	; 2
     f9c:	80 e0       	ldi	r24, 0x00	; 0
     f9e:	90 e0       	ldi	r25, 0x00	; 0
     fa0:	0e 94 6c 02 	call	0x4d8	; 0x4d8 <Post_Event>
     fa4:	58 c0       	rjmp	.+176    	; 0x1056 <__vector_14+0x164>
static void Update_Buffer_Index(void)
{
    // Set current row of command buffer to unassigned (0xFF)
    for (int i = 0; i < MAX_COMMAND_TX_SIZE; i++)
    {
        Command_Buffer[Buffer_Index][i] = 0xFF;
     fa6:	30 91 4d 01 	lds	r19, 0x014D	; 0x80014d <Buffer_Index>
     faa:	e3 2f       	mov	r30, r19
     fac:	f0 e0       	ldi	r31, 0x00	; 0
     fae:	cf 01       	movw	r24, r30
     fb0:	88 0f       	add	r24, r24
     fb2:	99 1f       	adc	r25, r25
     fb4:	dc 01       	movw	r26, r24
     fb6:	ae 0f       	add	r26, r30
     fb8:	bf 1f       	adc	r27, r31
     fba:	aa 0f       	add	r26, r26
     fbc:	bb 1f       	adc	r27, r27
     fbe:	aa 55       	subi	r26, 0x5A	; 90
     fc0:	be 4f       	sbci	r27, 0xFE	; 254
     fc2:	2f ef       	ldi	r18, 0xFF	; 255
     fc4:	2c 93       	st	X, r18
     fc6:	11 96       	adiw	r26, 0x01	; 1
     fc8:	2c 93       	st	X, r18
     fca:	11 97       	sbiw	r26, 0x01	; 1
     fcc:	12 96       	adiw	r26, 0x02	; 2
     fce:	2c 93       	st	X, r18
     fd0:	12 97       	sbiw	r26, 0x02	; 2
     fd2:	13 96       	adiw	r26, 0x03	; 3
     fd4:	2c 93       	st	X, r18
     fd6:	13 97       	sbiw	r26, 0x03	; 3
     fd8:	14 96       	adiw	r26, 0x04	; 4
     fda:	2c 93       	st	X, r18
     fdc:	dc 01       	movw	r26, r24
     fde:	ae 0f       	add	r26, r30
     fe0:	bf 1f       	adc	r27, r31
     fe2:	aa 0f       	add	r26, r26
     fe4:	bb 1f       	adc	r27, r27
     fe6:	aa 55       	subi	r26, 0x5A	; 90
     fe8:	be 4f       	sbci	r27, 0xFE	; 254
     fea:	15 96       	adiw	r26, 0x05	; 5
     fec:	2c 93       	st	X, r18
    }
    // Point current receive list row to NULL
    for (int i = 0; i < MAX_COMMAND_RX_SIZE; i++)
    {
        Receive_List[Buffer_Index][i] = NULL;
     fee:	ee 0f       	add	r30, r30
     ff0:	ff 1f       	adc	r31, r31
     ff2:	ee 0f       	add	r30, r30
     ff4:	ff 1f       	adc	r31, r31
     ff6:	ee 0f       	add	r30, r30
     ff8:	ff 1f       	adc	r31, r31
     ffa:	e2 5b       	subi	r30, 0xB2	; 178
     ffc:	fe 4f       	sbci	r31, 0xFE	; 254
     ffe:	11 82       	std	Z+1, r1	; 0x01
    1000:	10 82       	st	Z, r1
    1002:	13 82       	std	Z+3, r1	; 0x03
    1004:	12 82       	std	Z+2, r1	; 0x02
    1006:	15 82       	std	Z+5, r1	; 0x05
    1008:	14 82       	std	Z+4, r1	; 0x04
    100a:	17 82       	std	Z+7, r1	; 0x07
    100c:	16 82       	std	Z+6, r1	; 0x06
    }
    // If at end of buffer
    if (Buffer_Index == COMMAND_BUFFER_SIZE - 1)
    100e:	3a 30       	cpi	r19, 0x0A	; 10
    1010:	19 f4       	brne	.+6      	; 0x1018 <__vector_14+0x126>
    {
        Buffer_Index = 0;
    1012:	10 92 4d 01 	sts	0x014D, r1	; 0x80014d <Buffer_Index>
    1016:	03 c0       	rjmp	.+6      	; 0x101e <__vector_14+0x12c>
    }
    else
    {
        Buffer_Index++;
    1018:	3f 5f       	subi	r19, 0xFF	; 255
    101a:	30 93 4d 01 	sts	0x014D, r19	; 0x80014d <Buffer_Index>
    }
    // If buffer has pending transmits
    if (Command_Buffer[Buffer_Index][TX_LENGTH_BYTE] != 0xFF)
    101e:	20 91 4d 01 	lds	r18, 0x014D	; 0x80014d <Buffer_Index>
    1022:	82 2f       	mov	r24, r18
    1024:	90 e0       	ldi	r25, 0x00	; 0
    1026:	82 0f       	add	r24, r18
    1028:	91 1d       	adc	r25, r1
    102a:	82 0f       	add	r24, r18
    102c:	91 1d       	adc	r25, r1
    102e:	88 0f       	add	r24, r24
    1030:	99 1f       	adc	r25, r25
    1032:	fc 01       	movw	r30, r24
    1034:	ea 55       	subi	r30, 0x5A	; 90
    1036:	fe 4f       	sbci	r31, 0xFE	; 254
    1038:	80 81       	ld	r24, Z
    103a:	8f 3f       	cpi	r24, 0xFF	; 255
    103c:	31 f0       	breq	.+12     	; 0x104a <__vector_14+0x158>
    {
        Post_Event(EVT_SPI_START);
    103e:	60 e8       	ldi	r22, 0x80	; 128
    1040:	70 e0       	ldi	r23, 0x00	; 0
    1042:	80 e0       	ldi	r24, 0x00	; 0
    1044:	90 e0       	ldi	r25, 0x00	; 0
    1046:	0e 94 6c 02 	call	0x4d8	; 0x4d8 <Post_Event>
				Post_Event(EVT_SPI_RECV_BYTE);
			}
			else if (RX_Index >= Expected_RX_Length)
			{
                Update_Buffer_Index();
				Post_Event(EVT_SPI_END);
    104a:	60 e0       	ldi	r22, 0x00	; 0
    104c:	74 e0       	ldi	r23, 0x04	; 4
    104e:	80 e0       	ldi	r24, 0x00	; 0
    1050:	90 e0       	ldi	r25, 0x00	; 0
    1052:	0e 94 6c 02 	call	0x4d8	; 0x4d8 <Post_Event>
    }
	else
	{
		// Not configured to be slave
	}
}
    1056:	ff 91       	pop	r31
    1058:	ef 91       	pop	r30
    105a:	bf 91       	pop	r27
    105c:	af 91       	pop	r26
    105e:	9f 91       	pop	r25
    1060:	8f 91       	pop	r24
    1062:	7f 91       	pop	r23
    1064:	6f 91       	pop	r22
    1066:	5f 91       	pop	r21
    1068:	4f 91       	pop	r20
    106a:	3f 91       	pop	r19
    106c:	2f 91       	pop	r18
    106e:	0f 90       	pop	r0
    1070:	0f be       	out	0x3f, r0	; 63
    1072:	0f 90       	pop	r0
    1074:	1f 90       	pop	r1
    1076:	18 95       	reti

00001078 <Init_SPI_Service>:

****************************************************************************/
void Init_SPI_Service(void)
{
	// Start State Machine from normal state
	Current_State = NORMAL_STATE;
    1078:	10 92 e9 01 	sts	0x01E9, r1	; 0x8001e9 <Current_State>
    107c:	08 95       	ret

0000107e <Run_SPI_Service>:
        Processes events for SPI Message transmit/receive

****************************************************************************/
void Run_SPI_Service(uint32_t event_mask)
{
	switch(Current_State)
    107e:	20 91 e9 01 	lds	r18, 0x01E9	; 0x8001e9 <Current_State>
    1082:	21 30       	cpi	r18, 0x01	; 1
    1084:	a9 f0       	breq	.+42     	; 0x10b0 <Run_SPI_Service+0x32>
    1086:	18 f0       	brcs	.+6      	; 0x108e <Run_SPI_Service+0x10>
    1088:	22 30       	cpi	r18, 0x02	; 2
    108a:	89 f1       	breq	.+98     	; 0x10ee <Run_SPI_Service+0x70>
    108c:	08 95       	ret
    {	
		case NORMAL_STATE:
			if (EVT_SPI_START == event_mask)
    108e:	60 38       	cpi	r22, 0x80	; 128
    1090:	71 05       	cpc	r23, r1
    1092:	81 05       	cpc	r24, r1
    1094:	91 05       	cpc	r25, r1
    1096:	e9 f5       	brne	.+122    	; 0x1112 <Run_SPI_Service+0x94>
			{			
                // Initialize SPI for particular command
                SPI_Start_Command();
    1098:	0e 94 aa 06 	call	0xd54	; 0xd54 <SPI_Start_Command>
				// Switch to sending state
				Current_State = SENDING_STATE;
    109c:	81 e0       	ldi	r24, 0x01	; 1
    109e:	80 93 e9 01 	sts	0x01E9, r24	; 0x8001e9 <Current_State>
				// Post event to initiate transition
				Post_Event(EVT_SPI_SEND_BYTE);
    10a2:	60 e0       	ldi	r22, 0x00	; 0
    10a4:	71 e0       	ldi	r23, 0x01	; 1
    10a6:	80 e0       	ldi	r24, 0x00	; 0
    10a8:	90 e0       	ldi	r25, 0x00	; 0
    10aa:	0e 94 6c 02 	call	0x4d8	; 0x4d8 <Post_Event>
    10ae:	08 95       	ret
                // Do Nothing
            }	
			break;
		
		case SENDING_STATE:
			if (EVT_SPI_SEND_BYTE == event_mask)
    10b0:	61 15       	cp	r22, r1
    10b2:	21 e0       	ldi	r18, 0x01	; 1
    10b4:	72 07       	cpc	r23, r18
    10b6:	81 05       	cpc	r24, r1
    10b8:	91 05       	cpc	r25, r1
    10ba:	19 f4       	brne	.+6      	; 0x10c2 <Run_SPI_Service+0x44>
			{
    			SPI_Transmit();
    10bc:	0e 94 c9 06 	call	0xd92	; 0xd92 <SPI_Transmit>
    10c0:	08 95       	ret
			}
			else if (EVT_SPI_RECV_BYTE == event_mask)
    10c2:	61 15       	cp	r22, r1
    10c4:	22 e0       	ldi	r18, 0x02	; 2
    10c6:	72 07       	cpc	r23, r18
    10c8:	81 05       	cpc	r24, r1
    10ca:	91 05       	cpc	r25, r1
    10cc:	31 f4       	brne	.+12     	; 0x10da <Run_SPI_Service+0x5c>
			{
                SPI_Transmit();
    10ce:	0e 94 c9 06 	call	0xd92	; 0xd92 <SPI_Transmit>
				Current_State = RECEIVING_STATE;				
    10d2:	82 e0       	ldi	r24, 0x02	; 2
    10d4:	80 93 e9 01 	sts	0x01E9, r24	; 0x8001e9 <Current_State>
    10d8:	08 95       	ret
			}
			else if (EVT_SPI_END == event_mask)
    10da:	61 15       	cp	r22, r1
    10dc:	74 40       	sbci	r23, 0x04	; 4
    10de:	81 05       	cpc	r24, r1
    10e0:	91 05       	cpc	r25, r1
    10e2:	b9 f4       	brne	.+46     	; 0x1112 <Run_SPI_Service+0x94>
			{
                SPI_End_Command();
    10e4:	0e 94 c7 06 	call	0xd8e	; 0xd8e <SPI_End_Command>
				Current_State = NORMAL_STATE;
    10e8:	10 92 e9 01 	sts	0x01E9, r1	; 0x8001e9 <Current_State>
    10ec:	08 95       	ret
                // Do Nothing
            }
			break;
		
		case RECEIVING_STATE:
            if (EVT_SPI_RECV_BYTE == event_mask)
    10ee:	61 15       	cp	r22, r1
    10f0:	22 e0       	ldi	r18, 0x02	; 2
    10f2:	72 07       	cpc	r23, r18
    10f4:	81 05       	cpc	r24, r1
    10f6:	91 05       	cpc	r25, r1
    10f8:	19 f4       	brne	.+6      	; 0x1100 <Run_SPI_Service+0x82>
            {
                SPI_Transmit();
    10fa:	0e 94 c9 06 	call	0xd92	; 0xd92 <SPI_Transmit>
    10fe:	08 95       	ret
            }
            if (EVT_SPI_END == event_mask)
    1100:	61 15       	cp	r22, r1
    1102:	74 40       	sbci	r23, 0x04	; 4
    1104:	81 05       	cpc	r24, r1
    1106:	91 05       	cpc	r25, r1
    1108:	21 f4       	brne	.+8      	; 0x1112 <Run_SPI_Service+0x94>
            {
                SPI_End_Command();
    110a:	0e 94 c7 06 	call	0xd8e	; 0xd8e <SPI_End_Command>
                Current_State = NORMAL_STATE;
    110e:	10 92 e9 01 	sts	0x01E9, r1	; 0x8001e9 <Current_State>
    1112:	08 95       	ret

00001114 <Query_SPI_State>:
****************************************************************************/

SPI_State_t Query_SPI_State(void)
{
    return Current_State;
}
    1114:	80 91 e9 01 	lds	r24, 0x01E9	; 0x8001e9 <Current_State>
    1118:	08 95       	ret

0000111a <Init_Timer_Module>:

****************************************************************************/
void Start_Short_Timer(uint32_t * p_this_timer, uint32_t time_in_ms_div_ticksperms)
{
    // Start timer
    for (int i = 0; i < NUM_TIMERS; i++)
    111a:	ea ee       	ldi	r30, 0xEA	; 234
    111c:	f1 e0       	ldi	r31, 0x01	; 1
    111e:	ae ee       	ldi	r26, 0xEE	; 238
    1120:	b1 e0       	ldi	r27, 0x01	; 1
    1122:	82 e5       	ldi	r24, 0x52	; 82
    1124:	92 e0       	ldi	r25, 0x02	; 2
    1126:	11 82       	std	Z+1, r1	; 0x01
    1128:	10 82       	st	Z, r1
    112a:	13 82       	std	Z+3, r1	; 0x03
    112c:	12 82       	std	Z+2, r1	; 0x02
    112e:	1c 92       	st	X, r1
    1130:	15 82       	std	Z+5, r1	; 0x05
    1132:	16 82       	std	Z+6, r1	; 0x06
    1134:	17 82       	std	Z+7, r1	; 0x07
    1136:	10 86       	std	Z+8, r1	; 0x08
    1138:	11 86       	std	Z+9, r1	; 0x09
    113a:	12 86       	std	Z+10, r1	; 0x0a
    113c:	13 86       	std	Z+11, r1	; 0x0b
    113e:	14 86       	std	Z+12, r1	; 0x0c
    1140:	3d 96       	adiw	r30, 0x0d	; 13
    1142:	1d 96       	adiw	r26, 0x0d	; 13
    1144:	e8 17       	cp	r30, r24
    1146:	f9 07       	cpc	r31, r25
    1148:	71 f7       	brne	.-36     	; 0x1126 <Init_Timer_Module+0xc>
    114a:	15 bc       	out	0x25, r1	; 37
    114c:	16 bc       	out	0x26, r1	; 38
    114e:	18 bc       	out	0x28, r1	; 40
    1150:	88 b5       	in	r24, 0x28	; 40
    1152:	83 58       	subi	r24, 0x83	; 131
    1154:	88 bd       	out	0x28, r24	; 40
    1156:	82 e0       	ldi	r24, 0x02	; 2
    1158:	80 93 6e 00 	sts	0x006E, r24	; 0x80006e <__EEPROM_REGION_LENGTH__+0x7f006e>
    115c:	16 bc       	out	0x26, r1	; 38
    115e:	86 b5       	in	r24, 0x26	; 38
    1160:	83 60       	ori	r24, 0x03	; 3
    1162:	86 bd       	out	0x26, r24	; 38
    1164:	08 95       	ret

00001166 <Register_Timer>:
    1166:	cf 93       	push	r28
    1168:	df 93       	push	r29
    116a:	c0 91 ea 01 	lds	r28, 0x01EA	; 0x8001ea <Timers>
    116e:	d0 91 eb 01 	lds	r29, 0x01EB	; 0x8001eb <Timers+0x1>
    1172:	c8 17       	cp	r28, r24
    1174:	d9 07       	cpc	r29, r25
    1176:	09 f4       	brne	.+2      	; 0x117a <Register_Timer+0x14>
    1178:	40 c0       	rjmp	.+128    	; 0x11fa <Register_Timer+0x94>
    117a:	aa ee       	ldi	r26, 0xEA	; 234
    117c:	b1 e0       	ldi	r27, 0x01	; 1
    117e:	45 e4       	ldi	r20, 0x45	; 69
    1180:	52 e0       	ldi	r21, 0x02	; 2
    1182:	fd 01       	movw	r30, r26
    1184:	25 85       	ldd	r18, Z+13	; 0x0d
    1186:	36 85       	ldd	r19, Z+14	; 0x0e
    1188:	28 17       	cp	r18, r24
    118a:	39 07       	cpc	r19, r25
    118c:	b1 f1       	breq	.+108    	; 0x11fa <Register_Timer+0x94>
    118e:	3d 96       	adiw	r30, 0x0d	; 13
    1190:	e4 17       	cp	r30, r20
    1192:	f5 07       	cpc	r31, r21
    1194:	b9 f7       	brne	.-18     	; 0x1184 <Register_Timer+0x1e>
    1196:	2c c0       	rjmp	.+88     	; 0x11f0 <Register_Timer+0x8a>
    1198:	1d 96       	adiw	r26, 0x0d	; 13
    119a:	4d 91       	ld	r20, X+
    119c:	5c 91       	ld	r21, X
    119e:	1e 97       	sbiw	r26, 0x0e	; 14
    11a0:	45 2b       	or	r20, r21
    11a2:	f9 f4       	brne	.+62     	; 0x11e2 <Register_Timer+0x7c>
    11a4:	02 c0       	rjmp	.+4      	; 0x11aa <Register_Timer+0x44>
    11a6:	20 e0       	ldi	r18, 0x00	; 0
    11a8:	30 e0       	ldi	r19, 0x00	; 0
    11aa:	f9 01       	movw	r30, r18
    11ac:	ee 0f       	add	r30, r30
    11ae:	ff 1f       	adc	r31, r31
    11b0:	e2 0f       	add	r30, r18
    11b2:	f3 1f       	adc	r31, r19
    11b4:	ee 0f       	add	r30, r30
    11b6:	ff 1f       	adc	r31, r31
    11b8:	ee 0f       	add	r30, r30
    11ba:	ff 1f       	adc	r31, r31
    11bc:	2e 0f       	add	r18, r30
    11be:	3f 1f       	adc	r19, r31
    11c0:	f9 01       	movw	r30, r18
    11c2:	e6 51       	subi	r30, 0x16	; 22
    11c4:	fe 4f       	sbci	r31, 0xFE	; 254
    11c6:	91 83       	std	Z+1, r25	; 0x01
    11c8:	80 83       	st	Z, r24
    11ca:	73 83       	std	Z+3, r23	; 0x03
    11cc:	62 83       	std	Z+2, r22	; 0x02
    11ce:	14 82       	std	Z+4, r1	; 0x04
    11d0:	15 82       	std	Z+5, r1	; 0x05
    11d2:	16 82       	std	Z+6, r1	; 0x06
    11d4:	17 82       	std	Z+7, r1	; 0x07
    11d6:	10 86       	std	Z+8, r1	; 0x08
    11d8:	11 86       	std	Z+9, r1	; 0x09
    11da:	12 86       	std	Z+10, r1	; 0x0a
    11dc:	13 86       	std	Z+11, r1	; 0x0b
    11de:	14 86       	std	Z+12, r1	; 0x0c
    11e0:	0c c0       	rjmp	.+24     	; 0x11fa <Register_Timer+0x94>
    11e2:	2f 5f       	subi	r18, 0xFF	; 255
    11e4:	3f 4f       	sbci	r19, 0xFF	; 255
    11e6:	1d 96       	adiw	r26, 0x0d	; 13
    11e8:	28 30       	cpi	r18, 0x08	; 8
    11ea:	31 05       	cpc	r19, r1
    11ec:	a9 f6       	brne	.-86     	; 0x1198 <Register_Timer+0x32>
    11ee:	05 c0       	rjmp	.+10     	; 0x11fa <Register_Timer+0x94>
    11f0:	cd 2b       	or	r28, r29
    11f2:	c9 f2       	breq	.-78     	; 0x11a6 <Register_Timer+0x40>
    11f4:	21 e0       	ldi	r18, 0x01	; 1
    11f6:	30 e0       	ldi	r19, 0x00	; 0
    11f8:	cf cf       	rjmp	.-98     	; 0x1198 <Register_Timer+0x32>
    11fa:	df 91       	pop	r29
    11fc:	cf 91       	pop	r28
    11fe:	08 95       	ret

00001200 <Start_Timer>:
    1200:	cf 92       	push	r12
    1202:	df 92       	push	r13
    1204:	ef 92       	push	r14
    1206:	ff 92       	push	r15
    1208:	20 91 ea 01 	lds	r18, 0x01EA	; 0x8001ea <Timers>
    120c:	30 91 eb 01 	lds	r19, 0x01EB	; 0x8001eb <Timers+0x1>
    1210:	28 17       	cp	r18, r24
    1212:	39 07       	cpc	r19, r25
    1214:	51 f0       	breq	.+20     	; 0x122a <Start_Timer+0x2a>
    1216:	ea ee       	ldi	r30, 0xEA	; 234
    1218:	f1 e0       	ldi	r31, 0x01	; 1
    121a:	21 e0       	ldi	r18, 0x01	; 1
    121c:	30 e0       	ldi	r19, 0x00	; 0
    121e:	a5 85       	ldd	r26, Z+13	; 0x0d
    1220:	b6 85       	ldd	r27, Z+14	; 0x0e
    1222:	a8 17       	cp	r26, r24
    1224:	b9 07       	cpc	r27, r25
    1226:	11 f5       	brne	.+68     	; 0x126c <Start_Timer+0x6c>
    1228:	02 c0       	rjmp	.+4      	; 0x122e <Start_Timer+0x2e>
    122a:	20 e0       	ldi	r18, 0x00	; 0
    122c:	30 e0       	ldi	r19, 0x00	; 0
    122e:	f9 01       	movw	r30, r18
    1230:	ee 0f       	add	r30, r30
    1232:	ff 1f       	adc	r31, r31
    1234:	e2 0f       	add	r30, r18
    1236:	f3 1f       	adc	r31, r19
    1238:	ee 0f       	add	r30, r30
    123a:	ff 1f       	adc	r31, r31
    123c:	ee 0f       	add	r30, r30
    123e:	ff 1f       	adc	r31, r31
    1240:	2e 0f       	add	r18, r30
    1242:	3f 1f       	adc	r19, r31
    1244:	f9 01       	movw	r30, r18
    1246:	e6 51       	subi	r30, 0x16	; 22
    1248:	fe 4f       	sbci	r31, 0xFE	; 254
    124a:	81 e0       	ldi	r24, 0x01	; 1
    124c:	84 83       	std	Z+4, r24	; 0x04
    124e:	15 82       	std	Z+5, r1	; 0x05
    1250:	16 82       	std	Z+6, r1	; 0x06
    1252:	17 82       	std	Z+7, r1	; 0x07
    1254:	10 86       	std	Z+8, r1	; 0x08
    1256:	6a 01       	movw	r12, r20
    1258:	7b 01       	movw	r14, r22
    125a:	cc 0c       	add	r12, r12
    125c:	dd 1c       	adc	r13, r13
    125e:	ee 1c       	adc	r14, r14
    1260:	ff 1c       	adc	r15, r15
    1262:	c1 86       	std	Z+9, r12	; 0x09
    1264:	d2 86       	std	Z+10, r13	; 0x0a
    1266:	e3 86       	std	Z+11, r14	; 0x0b
    1268:	f4 86       	std	Z+12, r15	; 0x0c
    126a:	06 c0       	rjmp	.+12     	; 0x1278 <Start_Timer+0x78>
    126c:	2f 5f       	subi	r18, 0xFF	; 255
    126e:	3f 4f       	sbci	r19, 0xFF	; 255
    1270:	3d 96       	adiw	r30, 0x0d	; 13
    1272:	28 30       	cpi	r18, 0x08	; 8
    1274:	31 05       	cpc	r19, r1
    1276:	99 f6       	brne	.-90     	; 0x121e <Start_Timer+0x1e>
    1278:	ff 90       	pop	r15
    127a:	ef 90       	pop	r14
    127c:	df 90       	pop	r13
    127e:	cf 90       	pop	r12
    1280:	08 95       	ret

00001282 <__vector_10>:
    Description
        Handles the timer overflow interrupt

****************************************************************************/
ISR(TIMER0_COMPA_vect)
{
    1282:	1f 92       	push	r1
    1284:	0f 92       	push	r0
    1286:	0f b6       	in	r0, 0x3f	; 63
    1288:	0f 92       	push	r0
    128a:	11 24       	eor	r1, r1
    128c:	ef 92       	push	r14
    128e:	ff 92       	push	r15
    1290:	0f 93       	push	r16
    1292:	1f 93       	push	r17
    1294:	2f 93       	push	r18
    1296:	3f 93       	push	r19
    1298:	4f 93       	push	r20
    129a:	5f 93       	push	r21
    129c:	6f 93       	push	r22
    129e:	7f 93       	push	r23
    12a0:	8f 93       	push	r24
    12a2:	9f 93       	push	r25
    12a4:	af 93       	push	r26
    12a6:	bf 93       	push	r27
    12a8:	cf 93       	push	r28
    12aa:	df 93       	push	r29
    12ac:	ef 93       	push	r30
    12ae:	ff 93       	push	r31
    //      then we will miss interrupts for ticks because they will be 
    //      disabled while we are here. Then we would have to wait for the
    //      timer to roll over which would cause time warp.

    // Write new value into output compare reg for next tick
    OCR0A = OCR0A + OC_T0_REG_VALUE;
    12b0:	88 b5       	in	r24, 0x28	; 40
    12b2:	83 58       	subi	r24, 0x83	; 131
    12b4:	88 bd       	out	0x28, r24	; 40
    12b6:	0e ee       	ldi	r16, 0xEE	; 238
    12b8:	11 e0       	ldi	r17, 0x01	; 1
    12ba:	ca ee       	ldi	r28, 0xEA	; 234
    12bc:	d1 e0       	ldi	r29, 0x01	; 1
    12be:	0f 2e       	mov	r0, r31
    12c0:	f2 e5       	ldi	r31, 0x52	; 82
    12c2:	ef 2e       	mov	r14, r31
    12c4:	f2 e0       	ldi	r31, 0x02	; 2
    12c6:	ff 2e       	mov	r15, r31
    12c8:	f0 2d       	mov	r31, r0
    12ca:	f8 01       	movw	r30, r16

    // Service the running registered timers
    for (int i = 0; i < NUM_TIMERS; i++)
    {
        if (true == Timers[i].timer_running_flag)
    12cc:	80 81       	ld	r24, Z
    12ce:	88 23       	and	r24, r24
    12d0:	81 f1       	breq	.+96     	; 0x1332 <__vector_10+0xb0>
    12d2:	9e 01       	movw	r18, r28
        {
            // If the timer was started with a non zero time, service the ticks,
            //      otherwise, process the cb immediately
            if (0 < Timers[i].ticks_remaining)
    12d4:	89 85       	ldd	r24, Y+9	; 0x09
    12d6:	9a 85       	ldd	r25, Y+10	; 0x0a
    12d8:	ab 85       	ldd	r26, Y+11	; 0x0b
    12da:	bc 85       	ldd	r27, Y+12	; 0x0c
    12dc:	00 97       	sbiw	r24, 0x00	; 0
    12de:	a1 05       	cpc	r26, r1
    12e0:	b1 05       	cpc	r27, r1
    12e2:	b9 f0       	breq	.+46     	; 0x1312 <__vector_10+0x90>
            {
                // Add one to time, subtract one from ticks left
                Timers[i].ticks_since_start += 1;
    12e4:	4d 81       	ldd	r20, Y+5	; 0x05
    12e6:	5e 81       	ldd	r21, Y+6	; 0x06
    12e8:	6f 81       	ldd	r22, Y+7	; 0x07
    12ea:	78 85       	ldd	r23, Y+8	; 0x08
    12ec:	4f 5f       	subi	r20, 0xFF	; 255
    12ee:	5f 4f       	sbci	r21, 0xFF	; 255
    12f0:	6f 4f       	sbci	r22, 0xFF	; 255
    12f2:	7f 4f       	sbci	r23, 0xFF	; 255
    12f4:	4d 83       	std	Y+5, r20	; 0x05
    12f6:	5e 83       	std	Y+6, r21	; 0x06
    12f8:	6f 83       	std	Y+7, r22	; 0x07
    12fa:	78 87       	std	Y+8, r23	; 0x08
                Timers[i].ticks_remaining -= 1;
    12fc:	01 97       	sbiw	r24, 0x01	; 1
    12fe:	a1 09       	sbc	r26, r1
    1300:	b1 09       	sbc	r27, r1
    1302:	89 87       	std	Y+9, r24	; 0x09
    1304:	9a 87       	std	Y+10, r25	; 0x0a
    1306:	ab 87       	std	Y+11, r26	; 0x0b
    1308:	bc 87       	std	Y+12, r27	; 0x0c
            }

            // If the timer has expired
            if (0 == Timers[i].ticks_remaining)
    130a:	89 2b       	or	r24, r25
    130c:	8a 2b       	or	r24, r26
    130e:	8b 2b       	or	r24, r27
    1310:	81 f4       	brne	.+32     	; 0x1332 <__vector_10+0xb0>
            {
                // Clear running flag
                Timers[i].timer_running_flag = false;
    1312:	10 82       	st	Z, r1
                
                // Execute cb function with value of id pointer's value
                // If cb is not null, execute
                if (Timers[i].timer_cb_func)
    1314:	d9 01       	movw	r26, r18
    1316:	12 96       	adiw	r26, 0x02	; 2
    1318:	ed 91       	ld	r30, X+
    131a:	fc 91       	ld	r31, X
    131c:	13 97       	sbiw	r26, 0x03	; 3
    131e:	30 97       	sbiw	r30, 0x00	; 0
    1320:	41 f0       	breq	.+16     	; 0x1332 <__vector_10+0xb0>
                {
                    // Execute callback
                    Timers[i].timer_cb_func(*(Timers[i].p_timer_id));
    1322:	8d 91       	ld	r24, X+
    1324:	9c 91       	ld	r25, X
    1326:	dc 01       	movw	r26, r24
    1328:	6d 91       	ld	r22, X+
    132a:	7d 91       	ld	r23, X+
    132c:	8d 91       	ld	r24, X+
    132e:	9c 91       	ld	r25, X
    1330:	09 95       	icall
    1332:	03 5f       	subi	r16, 0xF3	; 243
    1334:	1f 4f       	sbci	r17, 0xFF	; 255
    1336:	2d 96       	adiw	r28, 0x0d	; 13

    // Write new value into output compare reg for next tick
    OCR0A = OCR0A + OC_T0_REG_VALUE;

    // Service the running registered timers
    for (int i = 0; i < NUM_TIMERS; i++)
    1338:	ce 15       	cp	r28, r14
    133a:	df 05       	cpc	r29, r15
    133c:	31 f6       	brne	.-116    	; 0x12ca <__vector_10+0x48>
                    Timers[i].timer_cb_func(*(Timers[i].p_timer_id));
                }
            }
        }
    }
}
    133e:	ff 91       	pop	r31
    1340:	ef 91       	pop	r30
    1342:	df 91       	pop	r29
    1344:	cf 91       	pop	r28
    1346:	bf 91       	pop	r27
    1348:	af 91       	pop	r26
    134a:	9f 91       	pop	r25
    134c:	8f 91       	pop	r24
    134e:	7f 91       	pop	r23
    1350:	6f 91       	pop	r22
    1352:	5f 91       	pop	r21
    1354:	4f 91       	pop	r20
    1356:	3f 91       	pop	r19
    1358:	2f 91       	pop	r18
    135a:	1f 91       	pop	r17
    135c:	0f 91       	pop	r16
    135e:	ff 90       	pop	r15
    1360:	ef 90       	pop	r14
    1362:	0f 90       	pop	r0
    1364:	0f be       	out	0x3f, r0	; 63
    1366:	0f 90       	pop	r0
    1368:	1f 90       	pop	r1
    136a:	18 95       	reti

0000136c <_exit>:
    136c:	f8 94       	cli

0000136e <__stop_program>:
    136e:	ff cf       	rjmp	.-2      	; 0x136e <__stop_program>
